Component: ARM Compiler 5.06 update 4 (build 422) Tool: armlink [4d35d2]

==============================================================================

Section Cross References

    main.o(i.advertising_init) refers to memseta.o(.text) for __aeabi_memclr4
    main.o(i.advertising_init) refers to ble_advertising.o(i.ble_advertising_init) for ble_advertising_init
    main.o(i.advertising_init) refers to app_error.o(i.app_error_handler) for app_error_handler
    main.o(i.advertising_init) refers to main.o(i.on_adv_evt) for on_adv_evt
    main.o(i.assert_nrf_callback) refers to app_error.o(i.app_error_handler) for app_error_handler
    main.o(i.ble_evt_dispatch) refers to device_manager_peripheral.o(i.dm_ble_evt_handler) for dm_ble_evt_handler
    main.o(i.ble_evt_dispatch) refers to ble_conn_params.o(i.ble_conn_params_on_ble_evt) for ble_conn_params_on_ble_evt
    main.o(i.ble_evt_dispatch) refers to bsp_btn_ble.o(i.bsp_btn_ble_on_ble_evt) for bsp_btn_ble_on_ble_evt
    main.o(i.ble_evt_dispatch) refers to main.o(i.on_ble_evt) for on_ble_evt
    main.o(i.ble_evt_dispatch) refers to ble_advertising.o(i.ble_advertising_on_ble_evt) for ble_advertising_on_ble_evt
    main.o(i.ble_stack_init) refers to softdevice_handler.o(i.softdevice_handler_init) for softdevice_handler_init
    main.o(i.ble_stack_init) refers to app_error.o(i.app_error_handler) for app_error_handler
    main.o(i.ble_stack_init) refers to softdevice_handler.o(i.softdevice_enable_get_default_config) for softdevice_enable_get_default_config
    main.o(i.ble_stack_init) refers to softdevice_handler.o(i.sd_check_ram_start) for sd_check_ram_start
    main.o(i.ble_stack_init) refers to softdevice_handler.o(i.softdevice_enable) for softdevice_enable
    main.o(i.ble_stack_init) refers to softdevice_handler.o(i.softdevice_ble_evt_handler_set) for softdevice_ble_evt_handler_set
    main.o(i.ble_stack_init) refers to softdevice_handler.o(i.softdevice_sys_evt_handler_set) for softdevice_sys_evt_handler_set
    main.o(i.ble_stack_init) refers to main.o(.constdata) for .constdata
    main.o(i.ble_stack_init) refers to main.o(.bss) for BLE_EVT_BUFFER
    main.o(i.ble_stack_init) refers to main.o(i.ble_evt_dispatch) for ble_evt_dispatch
    main.o(i.ble_stack_init) refers to main.o(i.sys_evt_dispatch) for sys_evt_dispatch
    main.o(i.bsp_event_handler) refers to main.o(i.sleep_mode_enter) for sleep_mode_enter
    main.o(i.bsp_event_handler) refers to app_error.o(i.app_error_handler) for app_error_handler
    main.o(i.bsp_event_handler) refers to ble_advertising.o(i.ble_advertising_restart_without_whitelist) for ble_advertising_restart_without_whitelist
    main.o(i.bsp_event_handler) refers to main.o(.data) for m_conn_handle
    main.o(i.buttons_leds_init) refers to bsp.o(i.bsp_init) for bsp_init
    main.o(i.buttons_leds_init) refers to app_error.o(i.app_error_handler) for app_error_handler
    main.o(i.buttons_leds_init) refers to bsp_btn_ble.o(i.bsp_btn_ble_init) for bsp_btn_ble_init
    main.o(i.buttons_leds_init) refers to main.o(i.bsp_event_handler) for bsp_event_handler
    main.o(i.conn_params_error_handler) refers to app_error.o(i.app_error_handler) for app_error_handler
    main.o(i.conn_params_init) refers to memseta.o(.text) for __aeabi_memclr4
    main.o(i.conn_params_init) refers to ble_conn_params.o(i.ble_conn_params_init) for ble_conn_params_init
    main.o(i.conn_params_init) refers to app_error.o(i.app_error_handler) for app_error_handler
    main.o(i.conn_params_init) refers to main.o(i.on_conn_params_evt) for on_conn_params_evt
    main.o(i.conn_params_init) refers to main.o(i.conn_params_error_handler) for conn_params_error_handler
    main.o(i.device_manager_evt_handler) refers to app_error.o(i.app_error_handler) for app_error_handler
    main.o(i.device_manager_init) refers to pstorage.o(i.pstorage_init) for pstorage_init
    main.o(i.device_manager_init) refers to app_error.o(i.app_error_handler) for app_error_handler
    main.o(i.device_manager_init) refers to device_manager_peripheral.o(i.dm_init) for dm_init
    main.o(i.device_manager_init) refers to device_manager_peripheral.o(i.dm_register) for dm_register
    main.o(i.device_manager_init) refers to main.o(i.device_manager_evt_handler) for device_manager_evt_handler
    main.o(i.device_manager_init) refers to main.o(.data) for m_app_handle
    main.o(i.gap_params_init) refers to app_error.o(i.app_error_handler) for app_error_handler
    main.o(i.main) refers to main.o(i.timers_init) for timers_init
    main.o(i.main) refers to main.o(i.buttons_leds_init) for buttons_leds_init
    main.o(i.main) refers to main.o(i.ble_stack_init) for ble_stack_init
    main.o(i.main) refers to main.o(i.device_manager_init) for device_manager_init
    main.o(i.main) refers to main.o(i.gap_params_init) for gap_params_init
    main.o(i.main) refers to main.o(i.advertising_init) for advertising_init
    main.o(i.main) refers to main.o(i.conn_params_init) for conn_params_init
    main.o(i.main) refers to ble_advertising.o(i.ble_advertising_start) for ble_advertising_start
    main.o(i.main) refers to app_error.o(i.app_error_handler) for app_error_handler
    main.o(i.main) refers to main.o(i.power_manage) for power_manage
    main.o(i.on_adv_evt) refers to bsp.o(i.bsp_indication_set) for bsp_indication_set
    main.o(i.on_adv_evt) refers to app_error.o(i.app_error_handler) for app_error_handler
    main.o(i.on_adv_evt) refers to main.o(i.sleep_mode_enter) for sleep_mode_enter
    main.o(i.on_ble_evt) refers to bsp.o(i.bsp_indication_set) for bsp_indication_set
    main.o(i.on_ble_evt) refers to app_error.o(i.app_error_handler) for app_error_handler
    main.o(i.on_ble_evt) refers to main.o(.data) for m_conn_handle
    main.o(i.on_conn_params_evt) refers to app_error.o(i.app_error_handler) for app_error_handler
    main.o(i.on_conn_params_evt) refers to main.o(.data) for m_conn_handle
    main.o(i.power_manage) refers to app_error.o(i.app_error_handler) for app_error_handler
    main.o(i.sleep_mode_enter) refers to bsp.o(i.bsp_indication_set) for bsp_indication_set
    main.o(i.sleep_mode_enter) refers to app_error.o(i.app_error_handler) for app_error_handler
    main.o(i.sleep_mode_enter) refers to bsp_btn_ble.o(i.bsp_btn_ble_sleep_mode_prepare) for bsp_btn_ble_sleep_mode_prepare
    main.o(i.sys_evt_dispatch) refers to pstorage.o(i.pstorage_sys_event_handler) for pstorage_sys_event_handler
    main.o(i.sys_evt_dispatch) refers to ble_advertising.o(i.ble_advertising_on_sys_evt) for ble_advertising_on_sys_evt
    main.o(i.timers_init) refers to app_timer.o(i.app_timer_init) for app_timer_init
    main.o(i.timers_init) refers to app_error.o(i.app_error_handler) for app_error_handler
    main.o(i.timers_init) refers to main.o(.bss) for APP_TIMER_BUF
    bsp.o(i.bsp_button_event_handler) refers to app_timer.o(i.app_timer_start) for app_timer_start
    bsp.o(i.bsp_button_event_handler) refers to app_timer.o(i.app_timer_stop) for app_timer_stop
    bsp.o(i.bsp_button_event_handler) refers to bsp.o(.constdata) for m_buttons_list
    bsp.o(i.bsp_button_event_handler) refers to bsp.o(.bss) for m_events_list
    bsp.o(i.bsp_button_event_handler) refers to bsp.o(.data) for m_app_ticks_per_100ms
    bsp.o(i.bsp_button_is_pressed) refers to bsp.o(.constdata) for m_buttons_list
    bsp.o(i.bsp_buttons_disable) refers to app_button.o(i.app_button_disable) for app_button_disable
    bsp.o(i.bsp_buttons_enable) refers to app_button.o(i.app_button_enable) for app_button_enable
    bsp.o(i.bsp_buttons_state_get) refers to bsp.o(.constdata) for m_buttons_list
    bsp.o(i.bsp_event_to_button_action_assign) refers to bsp.o(.bss) for m_events_list
    bsp.o(i.bsp_indication_set) refers to bsp.o(i.bsp_led_indication) for bsp_led_indication
    bsp.o(i.bsp_indication_set) refers to bsp.o(.data) for m_indication_type
    bsp.o(i.bsp_indication_text_set) refers to bsp.o(i.bsp_indication_set) for bsp_indication_set
    bsp.o(i.bsp_init) refers to bsp.o(i.bsp_event_to_button_action_assign) for bsp_event_to_button_action_assign
    bsp.o(i.bsp_init) refers to app_button.o(i.app_button_init) for app_button_init
    bsp.o(i.bsp_init) refers to app_button.o(i.app_button_enable) for app_button_enable
    bsp.o(i.bsp_init) refers to app_timer.o(i.app_timer_create) for app_timer_create
    bsp.o(i.bsp_init) refers to bsp.o(.data) for m_app_ticks_per_100ms
    bsp.o(i.bsp_init) refers to bsp.o(.constdata) for app_buttons
    bsp.o(i.bsp_init) refers to bsp.o(i.button_timer_handler) for button_timer_handler
    bsp.o(i.bsp_init) refers to bsp.o(i.leds_timer_handler) for leds_timer_handler
    bsp.o(i.bsp_init) refers to bsp.o(i.alert_timer_handler) for alert_timer_handler
    bsp.o(i.bsp_led_indication) refers to app_timer.o(i.app_timer_start) for app_timer_start
    bsp.o(i.bsp_led_indication) refers to bsp.o(.data) for m_alert_mask
    bsp.o(i.bsp_led_indication) refers to bsp.o(.constdata) for m_leds_timer_id
    bsp.o(i.bsp_led_indication) refers to app_timer.o(i.app_timer_stop) for app_timer_stop
    bsp.o(i.bsp_wakeup_buttons_set) refers to bsp.o(.constdata) for m_buttons_list
    bsp.o(i.button_timer_handler) refers to bsp.o(i.bsp_button_event_handler) for bsp_button_event_handler
    bsp.o(i.leds_timer_handler) refers to bsp.o(i.bsp_led_indication) for bsp_led_indication
    bsp.o(i.leds_timer_handler) refers to bsp.o(.data) for m_indication_type
    bsp.o(.constdata) refers to bsp.o(.bss) for m_leds_timer_id_data
    bsp.o(.constdata) refers to bsp.o(i.bsp_button_event_handler) for bsp_button_event_handler
    bsp_btn_ble.o(i.advertising_buttons_configure) refers to bsp.o(i.bsp_event_to_button_action_assign) for bsp_event_to_button_action_assign
    bsp_btn_ble.o(i.bsp_btn_ble_init) refers to bsp_btn_ble.o(i.startup_event_extract) for startup_event_extract
    bsp_btn_ble.o(i.bsp_btn_ble_init) refers to bsp_btn_ble.o(i.advertising_buttons_configure) for advertising_buttons_configure
    bsp_btn_ble.o(i.bsp_btn_ble_init) refers to bsp_btn_ble.o(.data) for m_error_handler
    bsp_btn_ble.o(i.bsp_btn_ble_on_ble_evt) refers to bsp_btn_ble.o(i.connection_buttons_configure) for connection_buttons_configure
    bsp_btn_ble.o(i.bsp_btn_ble_on_ble_evt) refers to bsp_btn_ble.o(i.advertising_buttons_configure) for advertising_buttons_configure
    bsp_btn_ble.o(i.bsp_btn_ble_on_ble_evt) refers to bsp_btn_ble.o(.data) for m_num_connections
    bsp_btn_ble.o(i.bsp_btn_ble_sleep_mode_prepare) refers to bsp.o(i.bsp_wakeup_buttons_set) for bsp_wakeup_buttons_set
    bsp_btn_ble.o(i.connection_buttons_configure) refers to bsp.o(i.bsp_event_to_button_action_assign) for bsp_event_to_button_action_assign
    bsp_btn_ble.o(i.startup_event_extract) refers to bsp.o(i.bsp_button_is_pressed) for bsp_button_is_pressed
    ble_advdata.o(i.adv_data_encode) refers to ble_advdata.o(i.sec_mgr_oob_flags_encode) for sec_mgr_oob_flags_encode
    ble_advdata.o(i.adv_data_encode) refers to ble_advdata.o(i.tk_value_encode) for tk_value_encode
    ble_advdata.o(i.adv_data_encode) refers to ble_advdata.o(i.le_role_encode) for le_role_encode
    ble_advdata.o(i.adv_data_encode) refers to ble_advdata.o(i.ble_device_addr_encode) for ble_device_addr_encode
    ble_advdata.o(i.adv_data_encode) refers to ble_advdata.o(i.appearance_encode) for appearance_encode
    ble_advdata.o(i.adv_data_encode) refers to ble_advdata.o(i.flags_encode) for flags_encode
    ble_advdata.o(i.adv_data_encode) refers to ble_advdata.o(i.tx_power_level_encode) for tx_power_level_encode
    ble_advdata.o(i.adv_data_encode) refers to ble_advdata.o(i.uuid_list_encode) for uuid_list_encode
    ble_advdata.o(i.adv_data_encode) refers to ble_advdata.o(i.conn_int_encode) for conn_int_encode
    ble_advdata.o(i.adv_data_encode) refers to ble_advdata.o(i.manuf_specific_data_encode) for manuf_specific_data_encode
    ble_advdata.o(i.adv_data_encode) refers to ble_advdata.o(i.service_data_encode) for service_data_encode
    ble_advdata.o(i.adv_data_encode) refers to ble_advdata.o(i.name_encode) for name_encode
    ble_advdata.o(i.appearance_encode) refers to ble_advdata.o(i.uint16_encode) for uint16_encode
    ble_advdata.o(i.ble_advdata_set) refers to ble_advdata.o(i.advdata_check) for advdata_check
    ble_advdata.o(i.ble_advdata_set) refers to ble_advdata.o(i.adv_data_encode) for adv_data_encode
    ble_advdata.o(i.ble_advdata_set) refers to ble_advdata.o(i.srdata_check) for srdata_check
    ble_advdata.o(i.conn_int_encode) refers to ble_advdata.o(i.conn_int_check) for conn_int_check
    ble_advdata.o(i.conn_int_encode) refers to ble_advdata.o(i.uint16_encode) for uint16_encode
    ble_advdata.o(i.manuf_specific_data_encode) refers to ble_advdata.o(i.uint16_encode) for uint16_encode
    ble_advdata.o(i.manuf_specific_data_encode) refers to memcpya.o(.text) for __aeabi_memcpy
    ble_advdata.o(i.service_data_encode) refers to ble_advdata.o(i.uint16_encode) for uint16_encode
    ble_advdata.o(i.service_data_encode) refers to memcpya.o(.text) for __aeabi_memcpy
    ble_advdata.o(i.uuid_list_encode) refers to ble_advdata.o(i.uuid_list_sized_encode) for uuid_list_sized_encode
    ble_advertising.o(i.ble_advertising_init) refers to memcpya.o(.text) for __aeabi_memcpy4
    ble_advertising.o(i.ble_advertising_init) refers to ble_advertising.o(i.ble_advertising_peer_address_clear) for ble_advertising_peer_address_clear
    ble_advertising.o(i.ble_advertising_init) refers to memseta.o(.text) for __aeabi_memclr4
    ble_advertising.o(i.ble_advertising_init) refers to ble_advdata.o(i.ble_advdata_set) for ble_advdata_set
    ble_advertising.o(i.ble_advertising_init) refers to ble_advertising.o(.data) for m_adv_mode_current
    ble_advertising.o(i.ble_advertising_init) refers to ble_advertising.o(.bss) for m_adv_modes_config
    ble_advertising.o(i.ble_advertising_on_ble_evt) refers to ble_advertising.o(i.ble_advertising_start) for ble_advertising_start
    ble_advertising.o(i.ble_advertising_on_ble_evt) refers to ble_advertising.o(.data) for current_slave_link_conn_handle
    ble_advertising.o(i.ble_advertising_on_sys_evt) refers to ble_advertising.o(i.ble_advertising_start) for ble_advertising_start
    ble_advertising.o(i.ble_advertising_on_sys_evt) refers to ble_advertising.o(.data) for m_advertising_start_pending
    ble_advertising.o(i.ble_advertising_peer_addr_reply) refers to ble_advertising.o(.data) for m_peer_addr_reply_expected
    ble_advertising.o(i.ble_advertising_peer_address_clear) refers to ble_advertising.o(.data) for m_peer_address
    ble_advertising.o(i.ble_advertising_restart_without_whitelist) refers to ble_advdata.o(i.ble_advdata_set) for ble_advdata_set
    ble_advertising.o(i.ble_advertising_restart_without_whitelist) refers to ble_advertising.o(i.ble_advertising_start) for ble_advertising_start
    ble_advertising.o(i.ble_advertising_restart_without_whitelist) refers to ble_advertising.o(.bss) for m_adv_modes_config
    ble_advertising.o(i.ble_advertising_restart_without_whitelist) refers to ble_advertising.o(.data) for m_whitelist_temporarily_disabled
    ble_advertising.o(i.ble_advertising_start) refers to ble_advertising.o(i.flash_access_in_progress) for flash_access_in_progress
    ble_advertising.o(i.ble_advertising_start) refers to ble_advertising.o(i.ble_advertising_peer_address_clear) for ble_advertising_peer_address_clear
    ble_advertising.o(i.ble_advertising_start) refers to ble_advertising.o(i.peer_address_exists) for peer_address_exists
    ble_advertising.o(i.ble_advertising_start) refers to memseta.o(.text) for __aeabi_memclr4
    ble_advertising.o(i.ble_advertising_start) refers to ble_advertising.o(i.whitelist_has_entries) for whitelist_has_entries
    ble_advertising.o(i.ble_advertising_start) refers to ble_advdata.o(i.ble_advdata_set) for ble_advdata_set
    ble_advertising.o(i.ble_advertising_start) refers to ble_advertising.o(.data) for m_adv_mode_current
    ble_advertising.o(i.ble_advertising_start) refers to ble_advertising.o(.bss) for m_adv_modes_config
    ble_advertising.o(i.ble_advertising_whitelist_reply) refers to ble_advertising.o(.data) for m_whitelist_reply_expected
    ble_advertising.o(i.ble_advertising_whitelist_reply) refers to ble_advertising.o(.bss) for m_whitelist
    ble_advertising.o(i.flash_access_in_progress) refers to pstorage.o(i.pstorage_access_status_get) for pstorage_access_status_get
    ble_advertising.o(i.flash_access_in_progress) refers to fstorage.o(i.fs_queued_op_count_get) for fs_queued_op_count_get
    ble_conn_params.o(i.ble_conn_params_change_conn_params) refers to ble_conn_params.o(i.is_conn_params_ok) for is_conn_params_ok
    ble_conn_params.o(i.ble_conn_params_change_conn_params) refers to ble_conn_params.o(.data) for m_preferred_conn_params
    ble_conn_params.o(i.ble_conn_params_change_conn_params) refers to ble_conn_params.o(.bss) for m_conn_params_config
    ble_conn_params.o(i.ble_conn_params_init) refers to memcpya.o(.text) for __aeabi_memcpy4
    ble_conn_params.o(i.ble_conn_params_init) refers to app_timer.o(i.app_timer_create) for app_timer_create
    ble_conn_params.o(i.ble_conn_params_init) refers to ble_conn_params.o(.bss) for m_conn_params_config
    ble_conn_params.o(i.ble_conn_params_init) refers to ble_conn_params.o(.data) for m_change_param
    ble_conn_params.o(i.ble_conn_params_init) refers to ble_conn_params.o(i.update_timeout_handler) for update_timeout_handler
    ble_conn_params.o(i.ble_conn_params_init) refers to ble_conn_params.o(.constdata) for m_conn_params_timer_id
    ble_conn_params.o(i.ble_conn_params_on_ble_evt) refers to ble_conn_params.o(i.on_connect) for on_connect
    ble_conn_params.o(i.ble_conn_params_on_ble_evt) refers to ble_conn_params.o(i.on_disconnect) for on_disconnect
    ble_conn_params.o(i.ble_conn_params_on_ble_evt) refers to ble_conn_params.o(i.on_write) for on_write
    ble_conn_params.o(i.ble_conn_params_on_ble_evt) refers to ble_conn_params.o(i.on_conn_params_update) for on_conn_params_update
    ble_conn_params.o(i.ble_conn_params_stop) refers to app_timer.o(i.app_timer_stop) for app_timer_stop
    ble_conn_params.o(i.ble_conn_params_stop) refers to ble_conn_params.o(.constdata) for m_conn_params_timer_id
    ble_conn_params.o(i.conn_params_negotiation) refers to ble_conn_params.o(i.is_conn_params_ok) for is_conn_params_ok
    ble_conn_params.o(i.conn_params_negotiation) refers to app_timer.o(i.app_timer_start) for app_timer_start
    ble_conn_params.o(i.conn_params_negotiation) refers to ble_conn_params.o(.data) for m_current_conn_params
    ble_conn_params.o(i.conn_params_negotiation) refers to ble_conn_params.o(.bss) for m_conn_params_config
    ble_conn_params.o(i.conn_params_negotiation) refers to ble_conn_params.o(.constdata) for m_conn_params_timer_id
    ble_conn_params.o(i.is_conn_params_ok) refers to ble_conn_params.o(.data) for m_preferred_conn_params
    ble_conn_params.o(i.on_conn_params_update) refers to ble_conn_params.o(i.conn_params_negotiation) for conn_params_negotiation
    ble_conn_params.o(i.on_conn_params_update) refers to ble_conn_params.o(.data) for m_current_conn_params
    ble_conn_params.o(i.on_connect) refers to ble_conn_params.o(i.conn_params_negotiation) for conn_params_negotiation
    ble_conn_params.o(i.on_connect) refers to ble_conn_params.o(.data) for m_conn_handle
    ble_conn_params.o(i.on_connect) refers to ble_conn_params.o(.bss) for m_conn_params_config
    ble_conn_params.o(i.on_disconnect) refers to app_timer.o(i.app_timer_stop) for app_timer_stop
    ble_conn_params.o(i.on_disconnect) refers to ble_conn_params.o(.data) for m_conn_handle
    ble_conn_params.o(i.on_disconnect) refers to ble_conn_params.o(.constdata) for m_conn_params_timer_id
    ble_conn_params.o(i.on_disconnect) refers to ble_conn_params.o(.bss) for m_conn_params_config
    ble_conn_params.o(i.on_write) refers to ble_conn_params.o(i.conn_params_negotiation) for conn_params_negotiation
    ble_conn_params.o(i.on_write) refers to app_timer.o(i.app_timer_stop) for app_timer_stop
    ble_conn_params.o(i.on_write) refers to ble_conn_params.o(.bss) for m_conn_params_config
    ble_conn_params.o(i.on_write) refers to ble_conn_params.o(.constdata) for m_conn_params_timer_id
    ble_conn_params.o(i.update_timeout_handler) refers to ble_conn_params.o(.data) for m_conn_handle
    ble_conn_params.o(i.update_timeout_handler) refers to ble_conn_params.o(.bss) for m_conn_params_config
    ble_conn_params.o(.constdata) refers to ble_conn_params.o(.bss) for m_conn_params_timer_id_data
    ble_srv_common.o(i.ble_srv_ascii_to_utf8) refers to strlen.o(.text) for strlen
    ble_srv_common.o(i.ble_srv_report_ref_encode) refers to app_error.o(i.app_error_handler) for app_error_handler
    ble_srv_common.o(i.characteristic_add) refers to ble_srv_common.o(i.set_security_req) for set_security_req
    ble_srv_common.o(i.characteristic_add) refers to memseta.o(.text) for __aeabi_memclr4
    ble_srv_common.o(i.descriptor_add) refers to memseta.o(.text) for __aeabi_memclr4
    ble_srv_common.o(i.descriptor_add) refers to ble_srv_common.o(i.set_security_req) for set_security_req
    device_manager_peripheral.o(i.app_evt_notify) refers to device_manager_peripheral.o(.bss) for m_application_table
    device_manager_peripheral.o(i.bond_data_load) refers to pstorage.o(i.pstorage_block_identifier_get) for pstorage_block_identifier_get
    device_manager_peripheral.o(i.bond_data_load) refers to pstorage.o(i.pstorage_load) for pstorage_load
    device_manager_peripheral.o(i.bond_data_load) refers to device_manager_peripheral.o(.data) for m_storage_handle
    device_manager_peripheral.o(i.bond_data_load) refers to device_manager_peripheral.o(.bss) for m_bond_table
    device_manager_peripheral.o(i.bond_data_load) refers to device_manager_peripheral.o(.constdata) for m_service_context_load
    device_manager_peripheral.o(i.connection_instance_find) refers to device_manager_peripheral.o(.bss) for m_connection_table
    device_manager_peripheral.o(i.connection_instance_init) refers to device_manager_peripheral.o(.bss) for m_connection_table
    device_manager_peripheral.o(i.device_context_store) refers to pstorage.o(i.pstorage_block_identifier_get) for pstorage_block_identifier_get
    device_manager_peripheral.o(i.device_context_store) refers to device_manager_peripheral.o(.data) for m_storage_handle
    device_manager_peripheral.o(i.device_context_store) refers to device_manager_peripheral.o(.bss) for m_connection_table
    device_manager_peripheral.o(i.device_context_store) refers to pstorage.o(i.pstorage_update) for pstorage_update
    device_manager_peripheral.o(i.device_context_store) refers to pstorage.o(i.pstorage_store) for pstorage_store
    device_manager_peripheral.o(i.device_context_store) refers to device_manager_peripheral.o(i.storage_operation_dummy_handler) for storage_operation_dummy_handler
    device_manager_peripheral.o(i.device_context_store) refers to device_manager_peripheral.o(.constdata) for m_service_context_store
    device_manager_peripheral.o(i.device_instance_allocate) refers to device_manager_peripheral.o(.bss) for m_peer_table
    device_manager_peripheral.o(i.device_instance_find) refers to memcmp.o(.text) for memcmp
    device_manager_peripheral.o(i.device_instance_find) refers to device_manager_peripheral.o(.bss) for m_peer_table
    device_manager_peripheral.o(i.device_instance_free) refers to pstorage.o(i.pstorage_block_identifier_get) for pstorage_block_identifier_get
    device_manager_peripheral.o(i.device_instance_free) refers to pstorage.o(i.pstorage_clear) for pstorage_clear
    device_manager_peripheral.o(i.device_instance_free) refers to device_manager_peripheral.o(i.peer_instance_init) for peer_instance_init
    device_manager_peripheral.o(i.device_instance_free) refers to device_manager_peripheral.o(.data) for m_storage_handle
    device_manager_peripheral.o(i.dm_application_context_delete) refers to pstorage.o(i.pstorage_block_identifier_get) for pstorage_block_identifier_get
    device_manager_peripheral.o(i.dm_application_context_delete) refers to pstorage.o(i.pstorage_load) for pstorage_load
    device_manager_peripheral.o(i.dm_application_context_delete) refers to pstorage.o(i.pstorage_update) for pstorage_update
    device_manager_peripheral.o(i.dm_application_context_delete) refers to device_manager_peripheral.o(.data) for m_module_initialized
    device_manager_peripheral.o(i.dm_application_context_delete) refers to device_manager_peripheral.o(.bss) for m_application_table
    device_manager_peripheral.o(i.dm_application_context_delete) refers to device_manager_peripheral.o(.constdata) for m_context_init_len
    device_manager_peripheral.o(i.dm_application_context_get) refers to pstorage.o(i.pstorage_block_identifier_get) for pstorage_block_identifier_get
    device_manager_peripheral.o(i.dm_application_context_get) refers to pstorage.o(i.pstorage_load) for pstorage_load
    device_manager_peripheral.o(i.dm_application_context_get) refers to device_manager_peripheral.o(.data) for m_module_initialized
    device_manager_peripheral.o(i.dm_application_context_get) refers to device_manager_peripheral.o(.bss) for m_application_table
    device_manager_peripheral.o(i.dm_application_context_set) refers to pstorage.o(i.pstorage_block_identifier_get) for pstorage_block_identifier_get
    device_manager_peripheral.o(i.dm_application_context_set) refers to pstorage.o(i.pstorage_load) for pstorage_load
    device_manager_peripheral.o(i.dm_application_context_set) refers to pstorage.o(i.pstorage_update) for pstorage_update
    device_manager_peripheral.o(i.dm_application_context_set) refers to device_manager_peripheral.o(.data) for m_module_initialized
    device_manager_peripheral.o(i.dm_application_context_set) refers to device_manager_peripheral.o(.bss) for m_application_table
    device_manager_peripheral.o(i.dm_application_context_set) refers to pstorage.o(i.pstorage_store) for pstorage_store
    device_manager_peripheral.o(i.dm_application_instance_set) refers to device_manager_peripheral.o(.data) for m_module_initialized
    device_manager_peripheral.o(i.dm_application_instance_set) refers to device_manager_peripheral.o(.bss) for m_application_table
    device_manager_peripheral.o(i.dm_ble_evt_handler) refers to device_manager_peripheral.o(i.dm_handle_initialize) for dm_handle_initialize
    device_manager_peripheral.o(i.dm_ble_evt_handler) refers to app_error.o(i.app_error_handler) for app_error_handler
    device_manager_peripheral.o(i.dm_ble_evt_handler) refers to device_manager_peripheral.o(i.connection_instance_find) for connection_instance_find
    device_manager_peripheral.o(i.dm_ble_evt_handler) refers to device_manager_peripheral.o(i.device_instance_find) for device_instance_find
    device_manager_peripheral.o(i.dm_ble_evt_handler) refers to device_manager_peripheral.o(i.bond_data_load) for bond_data_load
    device_manager_peripheral.o(i.dm_ble_evt_handler) refers to device_manager_peripheral.o(i.device_context_store) for device_context_store
    device_manager_peripheral.o(i.dm_ble_evt_handler) refers to device_manager_peripheral.o(i.peer_instance_init) for peer_instance_init
    device_manager_peripheral.o(i.dm_ble_evt_handler) refers to device_manager_peripheral.o(i.device_instance_allocate) for device_instance_allocate
    device_manager_peripheral.o(i.dm_ble_evt_handler) refers to device_manager_peripheral.o(.data) for m_module_initialized
    device_manager_peripheral.o(i.dm_ble_evt_handler) refers to device_manager_peripheral.o(.bss) for m_application_table
    device_manager_peripheral.o(i.dm_ble_evt_handler) refers to device_manager_peripheral.o(.conststring) for .conststring
    device_manager_peripheral.o(i.dm_ble_evt_handler) refers to device_manager_peripheral.o(i.device_instance_free) for device_instance_free
    device_manager_peripheral.o(i.dm_ble_evt_handler) refers to memseta.o(.text) for __aeabi_memclr4
    device_manager_peripheral.o(i.dm_ble_evt_handler) refers to device_manager_peripheral.o(i.app_evt_notify) for app_evt_notify
    device_manager_peripheral.o(i.dm_ble_evt_handler) refers to device_manager_peripheral.o(i.connection_instance_init) for connection_instance_init
    device_manager_peripheral.o(i.dm_ble_evt_handler) refers to device_manager_peripheral.o(.constdata) for m_service_context_apply
    device_manager_peripheral.o(i.dm_device_delete) refers to device_manager_peripheral.o(i.device_instance_free) for device_instance_free
    device_manager_peripheral.o(i.dm_device_delete) refers to device_manager_peripheral.o(.data) for m_module_initialized
    device_manager_peripheral.o(i.dm_device_delete) refers to device_manager_peripheral.o(.bss) for m_application_table
    device_manager_peripheral.o(i.dm_device_delete_all) refers to device_manager_peripheral.o(i.device_instance_free) for device_instance_free
    device_manager_peripheral.o(i.dm_device_delete_all) refers to device_manager_peripheral.o(.data) for m_module_initialized
    device_manager_peripheral.o(i.dm_device_delete_all) refers to device_manager_peripheral.o(.bss) for m_application_table
    device_manager_peripheral.o(i.dm_distributed_keys_get) refers to pstorage.o(i.pstorage_block_identifier_get) for pstorage_block_identifier_get
    device_manager_peripheral.o(i.dm_distributed_keys_get) refers to pstorage.o(i.pstorage_load) for pstorage_load
    device_manager_peripheral.o(i.dm_distributed_keys_get) refers to device_manager_peripheral.o(.data) for m_module_initialized
    device_manager_peripheral.o(i.dm_distributed_keys_get) refers to device_manager_peripheral.o(.bss) for m_application_table
    device_manager_peripheral.o(i.dm_handle_get) refers to device_manager_peripheral.o(.bss) for m_application_table
    device_manager_peripheral.o(i.dm_init) refers to device_manager_peripheral.o(i.connection_instance_init) for connection_instance_init
    device_manager_peripheral.o(i.dm_init) refers to memseta.o(.text) for __aeabi_memclr4
    device_manager_peripheral.o(i.dm_init) refers to device_manager_peripheral.o(i.peer_instance_init) for peer_instance_init
    device_manager_peripheral.o(i.dm_init) refers to pstorage.o(i.pstorage_register) for pstorage_register
    device_manager_peripheral.o(i.dm_init) refers to pstorage.o(i.pstorage_block_identifier_get) for pstorage_block_identifier_get
    device_manager_peripheral.o(i.dm_init) refers to pstorage.o(i.pstorage_load) for pstorage_load
    device_manager_peripheral.o(i.dm_init) refers to pstorage.o(i.pstorage_clear) for pstorage_clear
    device_manager_peripheral.o(i.dm_init) refers to device_manager_peripheral.o(.bss) for m_application_table
    device_manager_peripheral.o(i.dm_init) refers to device_manager_peripheral.o(.data) for m_irk_index_table
    device_manager_peripheral.o(i.dm_init) refers to device_manager_peripheral.o(i.dm_pstorage_cb_handler) for dm_pstorage_cb_handler
    device_manager_peripheral.o(i.dm_peer_addr_get) refers to device_manager_peripheral.o(.data) for m_module_initialized
    device_manager_peripheral.o(i.dm_peer_addr_get) refers to device_manager_peripheral.o(.bss) for m_application_table
    device_manager_peripheral.o(i.dm_peer_addr_set) refers to device_manager_peripheral.o(i.device_context_store) for device_context_store
    device_manager_peripheral.o(i.dm_peer_addr_set) refers to device_manager_peripheral.o(.data) for m_module_initialized
    device_manager_peripheral.o(i.dm_peer_addr_set) refers to device_manager_peripheral.o(.bss) for m_application_table
    device_manager_peripheral.o(i.dm_pstorage_cb_handler) refers to device_manager_peripheral.o(i.dm_handle_initialize) for dm_handle_initialize
    device_manager_peripheral.o(i.dm_pstorage_cb_handler) refers to app_error.o(i.app_error_handler) for app_error_handler
    device_manager_peripheral.o(i.dm_pstorage_cb_handler) refers to pstorage.o(i.pstorage_block_identifier_get) for pstorage_block_identifier_get
    device_manager_peripheral.o(i.dm_pstorage_cb_handler) refers to memcmp.o(.text) for memcmp
    device_manager_peripheral.o(i.dm_pstorage_cb_handler) refers to device_manager_peripheral.o(i.update_status_bit_reset) for update_status_bit_reset
    device_manager_peripheral.o(i.dm_pstorage_cb_handler) refers to memseta.o(.text) for __aeabi_memclr4
    device_manager_peripheral.o(i.dm_pstorage_cb_handler) refers to device_manager_peripheral.o(i.app_evt_notify) for app_evt_notify
    device_manager_peripheral.o(i.dm_pstorage_cb_handler) refers to device_manager_peripheral.o(.bss) for m_application_table
    device_manager_peripheral.o(i.dm_pstorage_cb_handler) refers to device_manager_peripheral.o(.conststring) for .conststring
    device_manager_peripheral.o(i.dm_pstorage_cb_handler) refers to device_manager_peripheral.o(.data) for m_storage_handle
    device_manager_peripheral.o(i.dm_pstorage_cb_handler) refers to device_manager_peripheral.o(.constdata) for m_context_init_len
    device_manager_peripheral.o(i.dm_register) refers to device_manager_peripheral.o(.data) for m_module_initialized
    device_manager_peripheral.o(i.dm_register) refers to device_manager_peripheral.o(.bss) for m_application_table
    device_manager_peripheral.o(i.dm_security_setup_req) refers to device_manager_peripheral.o(.data) for m_module_initialized
    device_manager_peripheral.o(i.dm_security_setup_req) refers to device_manager_peripheral.o(.bss) for m_application_table
    device_manager_peripheral.o(i.dm_security_status_req) refers to device_manager_peripheral.o(.data) for m_module_initialized
    device_manager_peripheral.o(i.dm_security_status_req) refers to device_manager_peripheral.o(.bss) for m_application_table
    device_manager_peripheral.o(i.dm_service_context_delete) refers to device_manager_peripheral.o(.data) for m_module_initialized
    device_manager_peripheral.o(i.dm_service_context_delete) refers to device_manager_peripheral.o(.bss) for m_application_table
    device_manager_peripheral.o(i.dm_service_context_get) refers to pstorage.o(i.pstorage_block_identifier_get) for pstorage_block_identifier_get
    device_manager_peripheral.o(i.dm_service_context_get) refers to device_manager_peripheral.o(.data) for m_module_initialized
    device_manager_peripheral.o(i.dm_service_context_get) refers to device_manager_peripheral.o(.bss) for m_application_table
    device_manager_peripheral.o(i.dm_service_context_get) refers to device_manager_peripheral.o(.constdata) for m_service_context_load
    device_manager_peripheral.o(i.dm_service_context_set) refers to memcpya.o(.text) for __aeabi_memcpy
    device_manager_peripheral.o(i.dm_service_context_set) refers to pstorage.o(i.pstorage_block_identifier_get) for pstorage_block_identifier_get
    device_manager_peripheral.o(i.dm_service_context_set) refers to device_manager_peripheral.o(.data) for m_module_initialized
    device_manager_peripheral.o(i.dm_service_context_set) refers to device_manager_peripheral.o(.bss) for m_application_table
    device_manager_peripheral.o(i.dm_service_context_set) refers to device_manager_peripheral.o(.constdata) for m_service_context_store
    device_manager_peripheral.o(i.dm_whitelist_create) refers to device_manager_peripheral.o(.data) for m_module_initialized
    device_manager_peripheral.o(i.dm_whitelist_create) refers to device_manager_peripheral.o(.bss) for m_application_table
    device_manager_peripheral.o(i.gatts_context_apply) refers to device_manager_peripheral.o(.bss) for m_gatts_table
    device_manager_peripheral.o(i.gatts_context_load) refers to pstorage.o(i.pstorage_load) for pstorage_load
    device_manager_peripheral.o(i.gatts_context_load) refers to device_manager_peripheral.o(.bss) for m_gatts_table
    device_manager_peripheral.o(i.gatts_context_store) refers to memcmp.o(.text) for memcmp
    device_manager_peripheral.o(i.gatts_context_store) refers to memseta.o(.text) for __aeabi_memclr4
    device_manager_peripheral.o(i.gatts_context_store) refers to memcpya.o(.text) for __aeabi_memcpy4
    device_manager_peripheral.o(i.gatts_context_store) refers to device_manager_peripheral.o(.bss) for m_connection_table
    device_manager_peripheral.o(i.gatts_context_store) refers to pstorage.o(i.pstorage_update) for pstorage_update
    device_manager_peripheral.o(i.gatts_context_store) refers to pstorage.o(i.pstorage_store) for pstorage_store
    device_manager_peripheral.o(i.gattsc_context_apply) refers to device_manager_peripheral.o(i.gatts_context_apply) for gatts_context_apply
    device_manager_peripheral.o(i.gattsc_context_load) refers to device_manager_peripheral.o(i.gatts_context_load) for gatts_context_load
    device_manager_peripheral.o(i.gattsc_context_store) refers to device_manager_peripheral.o(i.gatts_context_store) for gatts_context_store
    device_manager_peripheral.o(i.peer_instance_init) refers to memseta.o(.text) for __aeabi_memclr
    device_manager_peripheral.o(i.peer_instance_init) refers to device_manager_peripheral.o(i.update_status_bit_reset) for update_status_bit_reset
    device_manager_peripheral.o(i.peer_instance_init) refers to device_manager_peripheral.o(.bss) for m_peer_table
    device_manager_peripheral.o(i.update_status_bit_reset) refers to device_manager_peripheral.o(.data) for m_peer_addr_update
    device_manager_peripheral.o(.constdata) refers to device_manager_peripheral.o(i.no_service_context_store) for no_service_context_store
    device_manager_peripheral.o(.constdata) refers to device_manager_peripheral.o(i.gatts_context_store) for gatts_context_store
    device_manager_peripheral.o(.constdata) refers to device_manager_peripheral.o(i.gattc_context_store) for gattc_context_store
    device_manager_peripheral.o(.constdata) refers to device_manager_peripheral.o(i.gattsc_context_store) for gattsc_context_store
    device_manager_peripheral.o(.constdata) refers to device_manager_peripheral.o(i.no_service_context_load) for no_service_context_load
    device_manager_peripheral.o(.constdata) refers to device_manager_peripheral.o(i.gatts_context_load) for gatts_context_load
    device_manager_peripheral.o(.constdata) refers to device_manager_peripheral.o(i.gattc_context_load) for gattc_context_load
    device_manager_peripheral.o(.constdata) refers to device_manager_peripheral.o(i.gattsc_context_load) for gattsc_context_load
    device_manager_peripheral.o(.constdata) refers to device_manager_peripheral.o(i.no_service_context_apply) for no_service_context_apply
    device_manager_peripheral.o(.constdata) refers to device_manager_peripheral.o(i.gatts_context_apply) for gatts_context_apply
    device_manager_peripheral.o(.constdata) refers to device_manager_peripheral.o(i.gattc_context_apply) for gattc_context_apply
    device_manager_peripheral.o(.constdata) refers to device_manager_peripheral.o(i.gattsc_context_apply) for gattsc_context_apply
    app_uart.o(i.app_uart_close) refers to nrf_drv_uart.o(i.nrf_drv_uart_uninit) for nrf_drv_uart_uninit
    app_uart.o(i.app_uart_get) refers to app_uart.o(.data) for rx_done
    app_uart.o(i.app_uart_init) refers to memcpya.o(.text) for __aeabi_memcpy4
    app_uart.o(i.app_uart_init) refers to nrf_drv_uart.o(i.nrf_drv_uart_init) for nrf_drv_uart_init
    app_uart.o(i.app_uart_init) refers to nrf_drv_uart.o(i.nrf_drv_uart_rx_enable) for nrf_drv_uart_rx_enable
    app_uart.o(i.app_uart_init) refers to nrf_drv_uart.o(i.nrf_drv_uart_rx) for nrf_drv_uart_rx
    app_uart.o(i.app_uart_init) refers to app_uart.o(.constdata) for .constdata
    app_uart.o(i.app_uart_init) refers to app_uart.o(.data) for m_event_handler
    app_uart.o(i.app_uart_init) refers to app_uart.o(i.uart_event_handler) for uart_event_handler
    app_uart.o(i.app_uart_put) refers to nrf_drv_uart.o(i.nrf_drv_uart_tx) for nrf_drv_uart_tx
    app_uart.o(i.app_uart_put) refers to app_uart.o(.data) for tx_buffer
    app_uart.o(i.uart_event_handler) refers to nrf_drv_uart.o(i.nrf_drv_uart_rx) for nrf_drv_uart_rx
    app_uart.o(i.uart_event_handler) refers to app_uart.o(.data) for rx_buffer
    nrf_delay.o(i.nrf_delay_ms) refers to nrf_delay.o(.emb_text) for __asm___11_nrf_delay_c_532987f3__nrf_delay_us
    nrf_drv_gpiote.o(i.GPIOTE_IRQHandler) refers to nrf_drv_gpiote.o(i.nrf_gpiote_event_is_set) for nrf_gpiote_event_is_set
    nrf_drv_gpiote.o(i.GPIOTE_IRQHandler) refers to nrf_drv_gpiote.o(i.nrf_gpiote_event_clear) for nrf_gpiote_event_clear
    nrf_drv_gpiote.o(i.GPIOTE_IRQHandler) refers to nrf_drv_gpiote.o(i.channel_handler_get) for channel_handler_get
    nrf_drv_gpiote.o(i.GPIOTE_IRQHandler) refers to nrf_drv_gpiote.o(i.channel_port_get) for channel_port_get
    nrf_drv_gpiote.o(i.GPIOTE_IRQHandler) refers to nrf_drv_gpiote.o(i.nrf_gpio_cfg_sense_set) for nrf_gpio_cfg_sense_set
    nrf_drv_gpiote.o(i.GPIOTE_IRQHandler) refers to nrf_drv_gpiote.o(.bss) for m_cb
    nrf_drv_gpiote.o(i.channel_free) refers to nrf_drv_gpiote.o(.bss) for m_cb
    nrf_drv_gpiote.o(i.channel_handler_get) refers to nrf_drv_gpiote.o(.bss) for m_cb
    nrf_drv_gpiote.o(i.channel_port_alloc) refers to nrf_drv_gpiote.o(.bss) for m_cb
    nrf_drv_gpiote.o(i.channel_port_get) refers to nrf_drv_gpiote.o(.bss) for m_cb
    nrf_drv_gpiote.o(i.nrf_drv_gpiote_in_event_addr_get) refers to nrf_drv_gpiote.o(i.channel_port_get) for channel_port_get
    nrf_drv_gpiote.o(i.nrf_drv_gpiote_in_event_addr_get) refers to nrf_drv_gpiote.o(i.nrf_gpiote_event_addr_get) for nrf_gpiote_event_addr_get
    nrf_drv_gpiote.o(i.nrf_drv_gpiote_in_event_disable) refers to nrf_drv_gpiote.o(i.pin_in_use_by_port) for pin_in_use_by_port
    nrf_drv_gpiote.o(i.nrf_drv_gpiote_in_event_disable) refers to nrf_drv_gpiote.o(i.nrf_gpio_cfg_sense_set) for nrf_gpio_cfg_sense_set
    nrf_drv_gpiote.o(i.nrf_drv_gpiote_in_event_disable) refers to nrf_drv_gpiote.o(i.pin_in_use_by_te) for pin_in_use_by_te
    nrf_drv_gpiote.o(i.nrf_drv_gpiote_in_event_disable) refers to nrf_drv_gpiote.o(i.channel_port_get) for channel_port_get
    nrf_drv_gpiote.o(i.nrf_drv_gpiote_in_event_enable) refers to nrf_drv_gpiote.o(i.pin_in_use_by_port) for pin_in_use_by_port
    nrf_drv_gpiote.o(i.nrf_drv_gpiote_in_event_enable) refers to nrf_drv_gpiote.o(i.channel_port_get) for channel_port_get
    nrf_drv_gpiote.o(i.nrf_drv_gpiote_in_event_enable) refers to nrf_drv_gpiote.o(i.nrf_gpio_cfg_sense_set) for nrf_gpio_cfg_sense_set
    nrf_drv_gpiote.o(i.nrf_drv_gpiote_in_event_enable) refers to nrf_drv_gpiote.o(i.pin_in_use_by_te) for pin_in_use_by_te
    nrf_drv_gpiote.o(i.nrf_drv_gpiote_in_event_enable) refers to nrf_drv_gpiote.o(i.nrf_gpiote_event_clear) for nrf_gpiote_event_clear
    nrf_drv_gpiote.o(i.nrf_drv_gpiote_in_event_enable) refers to nrf_drv_gpiote.o(i.channel_handler_get) for channel_handler_get
    nrf_drv_gpiote.o(i.nrf_drv_gpiote_in_event_enable) refers to nrf_drv_gpiote.o(i.nrf_gpiote_int_enable) for nrf_gpiote_int_enable
    nrf_drv_gpiote.o(i.nrf_drv_gpiote_in_event_enable) refers to nrf_drv_gpiote.o(.bss) for m_cb
    nrf_drv_gpiote.o(i.nrf_drv_gpiote_in_init) refers to nrf_drv_gpiote.o(i.pin_in_use_by_gpiote) for pin_in_use_by_gpiote
    nrf_drv_gpiote.o(i.nrf_drv_gpiote_in_init) refers to nrf_drv_gpiote.o(i.channel_port_alloc) for channel_port_alloc
    nrf_drv_gpiote.o(i.nrf_drv_gpiote_in_init) refers to nrf_drv_gpiote.o(i.nrf_gpio_cfg) for nrf_gpio_cfg
    nrf_drv_gpiote.o(i.nrf_drv_gpiote_in_init) refers to nrf_drv_gpiote.o(.bss) for m_cb
    nrf_drv_gpiote.o(i.nrf_drv_gpiote_in_uninit) refers to nrf_drv_gpiote.o(i.nrf_drv_gpiote_in_event_disable) for nrf_drv_gpiote_in_event_disable
    nrf_drv_gpiote.o(i.nrf_drv_gpiote_in_uninit) refers to nrf_drv_gpiote.o(i.pin_in_use_by_te) for pin_in_use_by_te
    nrf_drv_gpiote.o(i.nrf_drv_gpiote_in_uninit) refers to nrf_drv_gpiote.o(i.channel_port_get) for channel_port_get
    nrf_drv_gpiote.o(i.nrf_drv_gpiote_in_uninit) refers to nrf_drv_gpiote.o(i.nrf_gpiote_te_default) for nrf_gpiote_te_default
    nrf_drv_gpiote.o(i.nrf_drv_gpiote_in_uninit) refers to nrf_drv_gpiote.o(i.nrf_gpio_cfg_default) for nrf_gpio_cfg_default
    nrf_drv_gpiote.o(i.nrf_drv_gpiote_in_uninit) refers to nrf_drv_gpiote.o(i.channel_free) for channel_free
    nrf_drv_gpiote.o(i.nrf_drv_gpiote_in_uninit) refers to nrf_drv_gpiote.o(i.pin_in_use_clear) for pin_in_use_clear
    nrf_drv_gpiote.o(i.nrf_drv_gpiote_init) refers to nrf_drv_gpiote.o(i.pin_in_use_clear) for pin_in_use_clear
    nrf_drv_gpiote.o(i.nrf_drv_gpiote_init) refers to nrf_drv_gpiote.o(i.channel_free) for channel_free
    nrf_drv_gpiote.o(i.nrf_drv_gpiote_init) refers to nrf_drv_common.o(i.nrf_drv_common_irq_enable) for nrf_drv_common_irq_enable
    nrf_drv_gpiote.o(i.nrf_drv_gpiote_init) refers to nrf_drv_gpiote.o(i.nrf_gpiote_int_enable) for nrf_gpiote_int_enable
    nrf_drv_gpiote.o(i.nrf_drv_gpiote_init) refers to nrf_drv_gpiote.o(.bss) for m_cb
    nrf_drv_gpiote.o(i.nrf_drv_gpiote_is_init) refers to nrf_drv_gpiote.o(.bss) for m_cb
    nrf_drv_gpiote.o(i.nrf_drv_gpiote_out_clear) refers to nrf_drv_gpiote.o(i.nrf_gpio_pin_clear) for nrf_gpio_pin_clear
    nrf_drv_gpiote.o(i.nrf_drv_gpiote_out_init) refers to nrf_drv_gpiote.o(i.channel_port_alloc) for channel_port_alloc
    nrf_drv_gpiote.o(i.nrf_drv_gpiote_out_init) refers to nrf_drv_gpiote.o(i.nrf_gpio_pin_set) for nrf_gpio_pin_set
    nrf_drv_gpiote.o(i.nrf_drv_gpiote_out_init) refers to nrf_drv_gpiote.o(i.nrf_gpio_pin_clear) for nrf_gpio_pin_clear
    nrf_drv_gpiote.o(i.nrf_drv_gpiote_out_init) refers to nrf_drv_gpiote.o(i.nrf_gpio_cfg) for nrf_gpio_cfg
    nrf_drv_gpiote.o(i.nrf_drv_gpiote_out_init) refers to nrf_drv_gpiote.o(.bss) for m_cb
    nrf_drv_gpiote.o(i.nrf_drv_gpiote_out_set) refers to nrf_drv_gpiote.o(i.nrf_gpio_pin_set) for nrf_gpio_pin_set
    nrf_drv_gpiote.o(i.nrf_drv_gpiote_out_task_addr_get) refers to nrf_drv_gpiote.o(i.channel_port_get) for channel_port_get
    nrf_drv_gpiote.o(i.nrf_drv_gpiote_out_task_disable) refers to nrf_drv_gpiote.o(.bss) for m_cb
    nrf_drv_gpiote.o(i.nrf_drv_gpiote_out_task_enable) refers to nrf_drv_gpiote.o(.bss) for m_cb
    nrf_drv_gpiote.o(i.nrf_drv_gpiote_out_task_force) refers to nrf_drv_gpiote.o(.bss) for m_cb
    nrf_drv_gpiote.o(i.nrf_drv_gpiote_out_task_trigger) refers to nrf_drv_gpiote.o(i.channel_port_get) for channel_port_get
    nrf_drv_gpiote.o(i.nrf_drv_gpiote_out_uninit) refers to nrf_drv_gpiote.o(i.pin_in_use_by_te) for pin_in_use_by_te
    nrf_drv_gpiote.o(i.nrf_drv_gpiote_out_uninit) refers to nrf_drv_gpiote.o(i.channel_port_get) for channel_port_get
    nrf_drv_gpiote.o(i.nrf_drv_gpiote_out_uninit) refers to nrf_drv_gpiote.o(i.channel_free) for channel_free
    nrf_drv_gpiote.o(i.nrf_drv_gpiote_out_uninit) refers to nrf_drv_gpiote.o(i.nrf_gpiote_te_default) for nrf_gpiote_te_default
    nrf_drv_gpiote.o(i.nrf_drv_gpiote_out_uninit) refers to nrf_drv_gpiote.o(i.pin_in_use_clear) for pin_in_use_clear
    nrf_drv_gpiote.o(i.nrf_drv_gpiote_out_uninit) refers to nrf_drv_gpiote.o(i.nrf_gpio_cfg_default) for nrf_gpio_cfg_default
    nrf_drv_gpiote.o(i.nrf_drv_gpiote_uninit) refers to nrf_drv_gpiote.o(i.nrf_drv_gpiote_out_uninit) for nrf_drv_gpiote_out_uninit
    nrf_drv_gpiote.o(i.nrf_drv_gpiote_uninit) refers to nrf_drv_gpiote.o(i.pin_in_use_by_gpiote) for pin_in_use_by_gpiote
    nrf_drv_gpiote.o(i.nrf_drv_gpiote_uninit) refers to nrf_drv_gpiote.o(i.nrf_drv_gpiote_in_uninit) for nrf_drv_gpiote_in_uninit
    nrf_drv_gpiote.o(i.nrf_drv_gpiote_uninit) refers to nrf_drv_gpiote.o(.bss) for m_cb
    nrf_drv_gpiote.o(i.nrf_gpio_cfg_default) refers to nrf_drv_gpiote.o(i.nrf_gpio_cfg) for nrf_gpio_cfg
    nrf_drv_gpiote.o(i.nrf_gpiote_event_clear) refers to nrf_drv_gpiote.o(i.nrf_gpiote_event_addr_get) for nrf_gpiote_event_addr_get
    nrf_drv_gpiote.o(i.nrf_gpiote_event_is_set) refers to nrf_drv_gpiote.o(i.nrf_gpiote_event_addr_get) for nrf_gpiote_event_addr_get
    nrf_drv_gpiote.o(i.pin_in_use_by_gpiote) refers to nrf_drv_gpiote.o(.bss) for m_cb
    nrf_drv_gpiote.o(i.pin_in_use_by_port) refers to nrf_drv_gpiote.o(.bss) for m_cb
    nrf_drv_gpiote.o(i.pin_in_use_by_te) refers to nrf_drv_gpiote.o(.bss) for m_cb
    nrf_drv_gpiote.o(i.pin_in_use_clear) refers to nrf_drv_gpiote.o(.bss) for m_cb
    nrf_drv_uart.o(i.UARTE0_UART0_IRQHandler) refers to nrf_drv_uart.o(i.uarte_irq_handler) for uarte_irq_handler
    nrf_drv_uart.o(i.UARTE0_UART0_IRQHandler) refers to nrf_drv_uart.o(i.uart_irq_handler) for uart_irq_handler
    nrf_drv_uart.o(i.UARTE0_UART0_IRQHandler) refers to nrf_drv_uart.o(.bss) for m_cb
    nrf_drv_uart.o(i.apply_config) refers to nrf_drv_uart.o(i.nrf_gpio_pin_set) for nrf_gpio_pin_set
    nrf_drv_uart.o(i.apply_config) refers to nrf_drv_uart.o(i.nrf_gpio_cfg_output) for nrf_gpio_cfg_output
    nrf_drv_uart.o(i.apply_config) refers to nrf_drv_uart.o(i.nrf_gpio_cfg_input) for nrf_gpio_cfg_input
    nrf_drv_uart.o(i.apply_config) refers to nrf_drv_uart.o(i.nrf_uarte_txrx_pins_set) for nrf_uarte_txrx_pins_set
    nrf_drv_uart.o(i.apply_config) refers to nrf_drv_uart.o(i.nrf_uarte_hwfc_pins_set) for nrf_uarte_hwfc_pins_set
    nrf_drv_uart.o(i.apply_config) refers to nrf_drv_uart.o(i.nrf_uart_txrx_pins_set) for nrf_uart_txrx_pins_set
    nrf_drv_uart.o(i.apply_config) refers to nrf_drv_uart.o(i.nrf_uart_hwfc_pins_set) for nrf_uart_hwfc_pins_set
    nrf_drv_uart.o(i.apply_config) refers to nrf_drv_uart.o(.bss) for m_cb
    nrf_drv_uart.o(i.nrf_drv_uart_errorsrc_get) refers to nrf_drv_uart.o(i.nrf_uarte_event_clear) for nrf_uarte_event_clear
    nrf_drv_uart.o(i.nrf_drv_uart_errorsrc_get) refers to nrf_drv_uart.o(i.nrf_uarte_errorsrc_get_and_clear) for nrf_uarte_errorsrc_get_and_clear
    nrf_drv_uart.o(i.nrf_drv_uart_errorsrc_get) refers to nrf_drv_uart.o(i.nrf_uart_event_clear) for nrf_uart_event_clear
    nrf_drv_uart.o(i.nrf_drv_uart_errorsrc_get) refers to nrf_drv_uart.o(i.nrf_uart_errorsrc_get_and_clear) for nrf_uart_errorsrc_get_and_clear
    nrf_drv_uart.o(i.nrf_drv_uart_errorsrc_get) refers to nrf_drv_uart.o(.bss) for m_cb
    nrf_drv_uart.o(i.nrf_drv_uart_init) refers to nrf_drv_uart.o(i.apply_config) for apply_config
    nrf_drv_uart.o(i.nrf_drv_uart_init) refers to nrf_drv_uart.o(i.nrf_uarte_event_clear) for nrf_uarte_event_clear
    nrf_drv_uart.o(i.nrf_drv_uart_init) refers to nrf_drv_uart.o(i.nrf_uarte_int_enable) for nrf_uarte_int_enable
    nrf_drv_uart.o(i.nrf_drv_uart_init) refers to nrf_drv_uart.o(i.nrf_uart_event_clear) for nrf_uart_event_clear
    nrf_drv_uart.o(i.nrf_drv_uart_init) refers to nrf_drv_uart.o(i.nrf_uart_int_enable) for nrf_uart_int_enable
    nrf_drv_uart.o(i.nrf_drv_uart_init) refers to nrf_drv_common.o(i.nrf_drv_common_irq_enable) for nrf_drv_common_irq_enable
    nrf_drv_uart.o(i.nrf_drv_uart_init) refers to nrf_drv_uart.o(.bss) for m_cb
    nrf_drv_uart.o(i.nrf_drv_uart_init) refers to nrf_drv_uart.o(.constdata) for m_default_config
    nrf_drv_uart.o(i.nrf_drv_uart_rx) refers to nrf_drv_uart.o(i.nrf_uarte_int_disable) for nrf_uarte_int_disable
    nrf_drv_uart.o(i.nrf_drv_uart_rx) refers to nrf_drv_uart.o(i.nrf_uart_int_disable) for nrf_uart_int_disable
    nrf_drv_uart.o(i.nrf_drv_uart_rx) refers to nrf_drv_uart.o(i.nrf_uarte_int_enable) for nrf_uarte_int_enable
    nrf_drv_uart.o(i.nrf_drv_uart_rx) refers to nrf_drv_uart.o(i.nrf_uart_int_enable) for nrf_uart_int_enable
    nrf_drv_uart.o(i.nrf_drv_uart_rx) refers to nrf_drv_uart.o(i.nrf_drv_uart_rx_for_uarte) for nrf_drv_uart_rx_for_uarte
    nrf_drv_uart.o(i.nrf_drv_uart_rx) refers to nrf_drv_uart.o(i.nrf_drv_uart_rx_for_uart) for nrf_drv_uart_rx_for_uart
    nrf_drv_uart.o(i.nrf_drv_uart_rx) refers to nrf_drv_uart.o(.bss) for m_cb
    nrf_drv_uart.o(i.nrf_drv_uart_rx_abort) refers to nrf_drv_uart.o(i.nrf_uarte_task_trigger) for nrf_uarte_task_trigger
    nrf_drv_uart.o(i.nrf_drv_uart_rx_abort) refers to nrf_drv_uart.o(i.nrf_uart_int_disable) for nrf_uart_int_disable
    nrf_drv_uart.o(i.nrf_drv_uart_rx_abort) refers to nrf_drv_uart.o(i.nrf_uart_task_trigger) for nrf_uart_task_trigger
    nrf_drv_uart.o(i.nrf_drv_uart_rx_abort) refers to nrf_drv_uart.o(.bss) for m_cb
    nrf_drv_uart.o(i.nrf_drv_uart_rx_disable) refers to nrf_drv_uart.o(i.nrf_uart_task_trigger) for nrf_uart_task_trigger
    nrf_drv_uart.o(i.nrf_drv_uart_rx_disable) refers to nrf_drv_uart.o(.bss) for m_cb
    nrf_drv_uart.o(i.nrf_drv_uart_rx_enable) refers to nrf_drv_uart.o(i.rx_enable) for rx_enable
    nrf_drv_uart.o(i.nrf_drv_uart_rx_enable) refers to nrf_drv_uart.o(.bss) for m_cb
    nrf_drv_uart.o(i.nrf_drv_uart_rx_for_uart) refers to nrf_drv_uart.o(i.rx_enable) for rx_enable
    nrf_drv_uart.o(i.nrf_drv_uart_rx_for_uart) refers to nrf_drv_uart.o(i.nrf_uart_event_clear) for nrf_uart_event_clear
    nrf_drv_uart.o(i.nrf_drv_uart_rx_for_uart) refers to nrf_drv_uart.o(i.nrf_uart_event_check) for nrf_uart_event_check
    nrf_drv_uart.o(i.nrf_drv_uart_rx_for_uart) refers to nrf_drv_uart.o(i.rx_byte) for rx_byte
    nrf_drv_uart.o(i.nrf_drv_uart_rx_for_uart) refers to nrf_drv_uart.o(i.nrf_uart_task_trigger) for nrf_uart_task_trigger
    nrf_drv_uart.o(i.nrf_drv_uart_rx_for_uart) refers to nrf_drv_uart.o(i.nrf_uart_int_enable) for nrf_uart_int_enable
    nrf_drv_uart.o(i.nrf_drv_uart_rx_for_uart) refers to nrf_drv_uart.o(.bss) for m_cb
    nrf_drv_uart.o(i.nrf_drv_uart_rx_for_uarte) refers to nrf_drv_uart.o(i.nrf_uarte_event_clear) for nrf_uarte_event_clear
    nrf_drv_uart.o(i.nrf_drv_uart_rx_for_uarte) refers to nrf_drv_uart.o(i.nrf_uarte_task_trigger) for nrf_uarte_task_trigger
    nrf_drv_uart.o(i.nrf_drv_uart_rx_for_uarte) refers to nrf_drv_uart.o(i.nrf_uarte_event_check) for nrf_uarte_event_check
    nrf_drv_uart.o(i.nrf_drv_uart_rx_for_uarte) refers to nrf_drv_uart.o(i.nrf_uarte_int_enable) for nrf_uarte_int_enable
    nrf_drv_uart.o(i.nrf_drv_uart_rx_for_uarte) refers to nrf_drv_uart.o(.bss) for m_cb
    nrf_drv_uart.o(i.nrf_drv_uart_tx) refers to nrf_drv_uart.o(i.nrf_drv_uart_tx_in_progress) for nrf_drv_uart_tx_in_progress
    nrf_drv_uart.o(i.nrf_drv_uart_tx) refers to nrf_drv_uart.o(i.nrf_drv_uart_tx_for_uarte) for nrf_drv_uart_tx_for_uarte
    nrf_drv_uart.o(i.nrf_drv_uart_tx) refers to nrf_drv_uart.o(i.nrf_drv_uart_tx_for_uart) for nrf_drv_uart_tx_for_uart
    nrf_drv_uart.o(i.nrf_drv_uart_tx) refers to nrf_drv_uart.o(.bss) for m_cb
    nrf_drv_uart.o(i.nrf_drv_uart_tx_abort) refers to nrf_drv_uart.o(i.nrf_uarte_event_clear) for nrf_uarte_event_clear
    nrf_drv_uart.o(i.nrf_drv_uart_tx_abort) refers to nrf_drv_uart.o(i.nrf_uarte_task_trigger) for nrf_uarte_task_trigger
    nrf_drv_uart.o(i.nrf_drv_uart_tx_abort) refers to nrf_drv_uart.o(i.nrf_uarte_event_check) for nrf_uarte_event_check
    nrf_drv_uart.o(i.nrf_drv_uart_tx_abort) refers to nrf_drv_uart.o(i.nrf_uart_task_trigger) for nrf_uart_task_trigger
    nrf_drv_uart.o(i.nrf_drv_uart_tx_abort) refers to nrf_drv_uart.o(i.tx_done_event) for tx_done_event
    nrf_drv_uart.o(i.nrf_drv_uart_tx_abort) refers to nrf_drv_uart.o(.bss) for m_cb
    nrf_drv_uart.o(i.nrf_drv_uart_tx_for_uart) refers to nrf_drv_uart.o(i.nrf_uart_event_clear) for nrf_uart_event_clear
    nrf_drv_uart.o(i.nrf_drv_uart_tx_for_uart) refers to nrf_drv_uart.o(i.nrf_uart_task_trigger) for nrf_uart_task_trigger
    nrf_drv_uart.o(i.nrf_drv_uart_tx_for_uart) refers to nrf_drv_uart.o(i.tx_byte) for tx_byte
    nrf_drv_uart.o(i.nrf_drv_uart_tx_for_uart) refers to nrf_drv_uart.o(i.nrf_uart_event_check) for nrf_uart_event_check
    nrf_drv_uart.o(i.nrf_drv_uart_tx_for_uart) refers to nrf_drv_uart.o(.bss) for m_cb
    nrf_drv_uart.o(i.nrf_drv_uart_tx_for_uarte) refers to nrf_drv_uart.o(i.nrf_uarte_event_clear) for nrf_uarte_event_clear
    nrf_drv_uart.o(i.nrf_drv_uart_tx_for_uarte) refers to nrf_drv_uart.o(i.nrf_uarte_task_trigger) for nrf_uarte_task_trigger
    nrf_drv_uart.o(i.nrf_drv_uart_tx_for_uarte) refers to nrf_drv_uart.o(i.nrf_uarte_event_check) for nrf_uarte_event_check
    nrf_drv_uart.o(i.nrf_drv_uart_tx_for_uarte) refers to nrf_drv_uart.o(.bss) for m_cb
    nrf_drv_uart.o(i.nrf_drv_uart_tx_in_progress) refers to nrf_drv_uart.o(.bss) for m_cb
    nrf_drv_uart.o(i.nrf_drv_uart_uninit) refers to nrf_drv_uart.o(i.nrf_uarte_int_disable) for nrf_uarte_int_disable
    nrf_drv_uart.o(i.nrf_drv_uart_uninit) refers to nrf_drv_uart.o(i.nrf_uart_int_disable) for nrf_uart_int_disable
    nrf_drv_uart.o(i.nrf_drv_uart_uninit) refers to nrf_drv_uart.o(i.pins_to_default) for pins_to_default
    nrf_drv_uart.o(i.nrf_drv_uart_uninit) refers to nrf_drv_uart.o(.bss) for m_cb
    nrf_drv_uart.o(i.nrf_gpio_cfg_default) refers to nrf_drv_uart.o(i.nrf_gpio_cfg) for nrf_gpio_cfg
    nrf_drv_uart.o(i.nrf_gpio_cfg_input) refers to nrf_drv_uart.o(i.nrf_gpio_cfg) for nrf_gpio_cfg
    nrf_drv_uart.o(i.nrf_gpio_cfg_output) refers to nrf_drv_uart.o(i.nrf_gpio_cfg) for nrf_gpio_cfg
    nrf_drv_uart.o(i.pins_to_default) refers to nrf_drv_uart.o(i.nrf_uarte_txrx_pins_set) for nrf_uarte_txrx_pins_set
    nrf_drv_uart.o(i.pins_to_default) refers to nrf_drv_uart.o(i.nrf_uarte_hwfc_pins_set) for nrf_uarte_hwfc_pins_set
    nrf_drv_uart.o(i.pins_to_default) refers to nrf_drv_uart.o(i.nrf_uart_txrx_pins_set) for nrf_uart_txrx_pins_set
    nrf_drv_uart.o(i.pins_to_default) refers to nrf_drv_uart.o(i.nrf_uart_hwfc_pins_set) for nrf_uart_hwfc_pins_set
    nrf_drv_uart.o(i.pins_to_default) refers to nrf_drv_uart.o(i.nrf_gpio_cfg_default) for nrf_gpio_cfg_default
    nrf_drv_uart.o(i.pins_to_default) refers to nrf_drv_uart.o(.bss) for m_cb
    nrf_drv_uart.o(i.rx_byte) refers to nrf_drv_uart.o(i.nrf_uart_event_clear) for nrf_uart_event_clear
    nrf_drv_uart.o(i.rx_byte) refers to nrf_drv_uart.o(.bss) for m_cb
    nrf_drv_uart.o(i.rx_done_event) refers to nrf_drv_uart.o(.bss) for m_cb
    nrf_drv_uart.o(i.rx_enable) refers to nrf_drv_uart.o(i.nrf_uart_event_clear) for nrf_uart_event_clear
    nrf_drv_uart.o(i.rx_enable) refers to nrf_drv_uart.o(i.nrf_uart_task_trigger) for nrf_uart_task_trigger
    nrf_drv_uart.o(i.tx_byte) refers to nrf_drv_uart.o(i.nrf_uart_event_clear) for nrf_uart_event_clear
    nrf_drv_uart.o(i.tx_byte) refers to nrf_drv_uart.o(.bss) for m_cb
    nrf_drv_uart.o(i.tx_done_event) refers to nrf_drv_uart.o(.bss) for m_cb
    nrf_drv_uart.o(i.uart_irq_handler) refers to nrf_drv_uart.o(i.nrf_uart_int_enable_check) for nrf_uart_int_enable_check
    nrf_drv_uart.o(i.uart_irq_handler) refers to nrf_drv_uart.o(i.nrf_uart_event_check) for nrf_uart_event_check
    nrf_drv_uart.o(i.uart_irq_handler) refers to nrf_drv_uart.o(i.nrf_uart_event_clear) for nrf_uart_event_clear
    nrf_drv_uart.o(i.uart_irq_handler) refers to nrf_drv_uart.o(i.nrf_uart_int_disable) for nrf_uart_int_disable
    nrf_drv_uart.o(i.uart_irq_handler) refers to nrf_drv_uart.o(i.nrf_uart_task_trigger) for nrf_uart_task_trigger
    nrf_drv_uart.o(i.uart_irq_handler) refers to nrf_drv_uart.o(i.nrf_uart_errorsrc_get_and_clear) for nrf_uart_errorsrc_get_and_clear
    nrf_drv_uart.o(i.uart_irq_handler) refers to nrf_drv_uart.o(i.rx_byte) for rx_byte
    nrf_drv_uart.o(i.uart_irq_handler) refers to nrf_drv_uart.o(i.rx_done_event) for rx_done_event
    nrf_drv_uart.o(i.uart_irq_handler) refers to nrf_drv_uart.o(i.tx_byte) for tx_byte
    nrf_drv_uart.o(i.uart_irq_handler) refers to nrf_drv_uart.o(i.tx_done_event) for tx_done_event
    nrf_drv_uart.o(i.uart_irq_handler) refers to nrf_drv_uart.o(.bss) for m_cb
    nrf_drv_uart.o(i.uarte_irq_handler) refers to nrf_drv_uart.o(i.nrf_uarte_event_check) for nrf_uarte_event_check
    nrf_drv_uart.o(i.uarte_irq_handler) refers to nrf_drv_uart.o(i.nrf_uarte_event_clear) for nrf_uarte_event_clear
    nrf_drv_uart.o(i.uarte_irq_handler) refers to nrf_drv_uart.o(i.nrf_uarte_errorsrc_get_and_clear) for nrf_uarte_errorsrc_get_and_clear
    nrf_drv_uart.o(i.uarte_irq_handler) refers to nrf_drv_uart.o(i.nrf_uarte_rx_amount_get) for nrf_uarte_rx_amount_get
    nrf_drv_uart.o(i.uarte_irq_handler) refers to nrf_drv_uart.o(i.rx_done_event) for rx_done_event
    nrf_drv_uart.o(i.uarte_irq_handler) refers to nrf_drv_uart.o(i.tx_done_event) for tx_done_event
    nrf_drv_uart.o(i.uarte_irq_handler) refers to nrf_drv_uart.o(.bss) for m_cb
    pstorage.o(i.app_notify) refers to pstorage.o(.bss) for m_app_table
    pstorage.o(i.app_notify) refers to pstorage.o(.data) for m_app_data_size
    pstorage.o(i.app_notify_error_state_transit) refers to pstorage.o(i.app_notify) for app_notify
    pstorage.o(i.app_notify_error_state_transit) refers to pstorage.o(i.sm_state_change) for sm_state_change
    pstorage.o(i.app_notify_error_state_transit) refers to pstorage.o(.bss) for m_cmd_queue
    pstorage.o(i.clear_operation_execute) refers to pstorage.o(i.pstorage_flash_page_size) for pstorage_flash_page_size
    pstorage.o(i.clear_operation_execute) refers to pstorage.o(i.sm_state_change) for sm_state_change
    pstorage.o(i.clear_operation_execute) refers to pstorage.o(i.tail_word_size_calculate) for tail_word_size_calculate
    pstorage.o(i.clear_operation_execute) refers to pstorage.o(.bss) for m_cmd_queue
    pstorage.o(i.clear_operation_execute) refers to pstorage.o(.data) for m_tail_word_size
    pstorage.o(i.clear_post_processing_run) refers to pstorage.o(i.command_end_procedure_run) for command_end_procedure_run
    pstorage.o(i.clear_post_processing_run) refers to pstorage.o(i.store_operation_execute) for store_operation_execute
    pstorage.o(i.clear_post_processing_run) refers to pstorage.o(.bss) for m_cmd_queue
    pstorage.o(i.cmd_process) refers to pstorage.o(i.store_operation_execute) for store_operation_execute
    pstorage.o(i.cmd_process) refers to pstorage.o(i.clear_operation_execute) for clear_operation_execute
    pstorage.o(i.cmd_process) refers to pstorage.o(i.update_operation_execute) for update_operation_execute
    pstorage.o(i.cmd_process) refers to pstorage.o(.bss) for m_cmd_queue
    pstorage.o(i.cmd_process) refers to pstorage.o(.data) for m_app_data_size
    pstorage.o(i.cmd_queue_dequeue) refers to pstorage.o(i.cmd_process) for cmd_process
    pstorage.o(i.cmd_queue_dequeue) refers to pstorage.o(.bss) for m_cmd_queue
    pstorage.o(i.cmd_queue_element_init) refers to pstorage.o(.bss) for m_cmd_queue
    pstorage.o(i.cmd_queue_enqueue) refers to pstorage.o(i.cmd_process) for cmd_process
    pstorage.o(i.cmd_queue_enqueue) refers to pstorage.o(.bss) for m_cmd_queue
    pstorage.o(i.cmd_queue_enqueue) refers to pstorage.o(.data) for m_state
    pstorage.o(i.cmd_queue_init) refers to pstorage.o(i.cmd_queue_element_init) for cmd_queue_element_init
    pstorage.o(i.cmd_queue_init) refers to pstorage.o(.bss) for m_cmd_queue
    pstorage.o(i.command_end_procedure_run) refers to pstorage.o(i.app_notify) for app_notify
    pstorage.o(i.command_end_procedure_run) refers to pstorage.o(i.command_queue_element_consume) for command_queue_element_consume
    pstorage.o(i.command_end_procedure_run) refers to pstorage.o(i.sm_state_change) for sm_state_change
    pstorage.o(i.command_end_procedure_run) refers to pstorage.o(.bss) for m_cmd_queue
    pstorage.o(i.command_queue_element_consume) refers to pstorage.o(i.cmd_queue_element_init) for cmd_queue_element_init
    pstorage.o(i.command_queue_element_consume) refers to pstorage.o(.bss) for m_cmd_queue
    pstorage.o(i.data_page_erase_state_run) refers to pstorage.o(i.swap_sub_state_state_change) for swap_sub_state_state_change
    pstorage.o(i.data_page_erase_state_run) refers to pstorage.o(i.is_page_erase_required) for is_page_erase_required
    pstorage.o(i.data_page_erase_state_run) refers to pstorage.o(i.swap_sub_sm_exit_action_run) for swap_sub_sm_exit_action_run
    pstorage.o(i.data_page_erase_state_run) refers to pstorage.o(i.swap_sub_state_err_busy_process) for swap_sub_state_err_busy_process
    pstorage.o(i.data_page_erase_state_run) refers to pstorage.o(.data) for m_flags
    pstorage.o(i.data_to_swap_write_state_run) refers to pstorage.o(i.swap_sub_state_state_change) for swap_sub_state_state_change
    pstorage.o(i.data_to_swap_write_state_run) refers to pstorage.o(i.swap_sub_state_err_busy_process) for swap_sub_state_err_busy_process
    pstorage.o(i.data_to_swap_write_state_run) refers to pstorage.o(.data) for m_flags
    pstorage.o(i.erase_sub_state_sm_run) refers to pstorage.o(i.is_page_erase_required) for is_page_erase_required
    pstorage.o(i.erase_sub_state_sm_run) refers to pstorage.o(i.clear_post_processing_run) for clear_post_processing_run
    pstorage.o(i.erase_sub_state_sm_run) refers to pstorage.o(i.sm_state_change) for sm_state_change
    pstorage.o(i.erase_sub_state_sm_run) refers to pstorage.o(i.main_state_err_busy_process) for main_state_err_busy_process
    pstorage.o(i.erase_sub_state_sm_run) refers to pstorage.o(.data) for m_flags
    pstorage.o(i.flash_api_err_code_process) refers to pstorage.o(i.app_notify_error_state_transit) for app_notify_error_state_transit
    pstorage.o(i.flash_api_err_code_process) refers to pstorage.o(.data) for m_flags
    pstorage.o(i.flash_operation_failure_run) refers to pstorage.o(i.sm_state_change) for sm_state_change
    pstorage.o(i.flash_operation_failure_run) refers to pstorage.o(i.swap_sub_state_state_change) for swap_sub_state_state_change
    pstorage.o(i.flash_operation_failure_run) refers to pstorage.o(i.app_notify_error_state_transit) for app_notify_error_state_transit
    pstorage.o(i.flash_operation_failure_run) refers to pstorage.o(.data) for m_num_of_command_retries
    pstorage.o(i.flash_operation_success_run) refers to pstorage.o(i.store_sub_state_sm_run) for store_sub_state_sm_run
    pstorage.o(i.flash_operation_success_run) refers to pstorage.o(i.erase_sub_state_sm_run) for erase_sub_state_sm_run
    pstorage.o(i.flash_operation_success_run) refers to pstorage.o(i.swap_sub_state_sm_run) for swap_sub_state_sm_run
    pstorage.o(i.flash_operation_success_run) refers to pstorage.o(.data) for m_state
    pstorage.o(i.flash_page_erase) refers to pstorage.o(i.flash_api_err_code_process) for flash_api_err_code_process
    pstorage.o(i.flash_write) refers to pstorage.o(i.flash_api_err_code_process) for flash_api_err_code_process
    pstorage.o(i.head_restore_state_run) refers to pstorage.o(i.is_tail_data_page_swap_required) for is_tail_data_page_swap_required
    pstorage.o(i.head_restore_state_run) refers to pstorage.o(i.swap_sub_state_state_change) for swap_sub_state_state_change
    pstorage.o(i.head_restore_state_run) refers to pstorage.o(i.is_page_erase_required) for is_page_erase_required
    pstorage.o(i.head_restore_state_run) refers to pstorage.o(i.swap_sub_sm_exit_action_run) for swap_sub_sm_exit_action_run
    pstorage.o(i.head_restore_state_run) refers to pstorage.o(i.swap_sub_state_err_busy_process) for swap_sub_state_err_busy_process
    pstorage.o(i.head_restore_state_run) refers to pstorage.o(.data) for m_flags
    pstorage.o(i.is_page_erase_required) refers to pstorage.o(i.pstorage_flash_page_size) for pstorage_flash_page_size
    pstorage.o(i.is_page_erase_required) refers to pstorage.o(.bss) for m_cmd_queue
    pstorage.o(i.is_page_erase_required) refers to pstorage.o(.data) for m_current_page_id
    pstorage.o(i.is_tail_data_page_swap_required) refers to pstorage.o(i.pstorage_flash_page_size) for pstorage_flash_page_size
    pstorage.o(i.is_tail_data_page_swap_required) refers to pstorage.o(.bss) for m_cmd_queue
    pstorage.o(i.is_tail_data_page_swap_required) refers to pstorage.o(.data) for m_tail_word_size
    pstorage.o(i.main_state_err_busy_process) refers to pstorage.o(i.sm_state_change) for sm_state_change
    pstorage.o(i.main_state_err_busy_process) refers to pstorage.o(.data) for m_flags
    pstorage.o(i.pstorage_access_status_get) refers to pstorage.o(.data) for m_flags
    pstorage.o(i.pstorage_access_status_get) refers to pstorage.o(.bss) for m_cmd_queue
    pstorage.o(i.pstorage_block_identifier_get) refers to pstorage.o(.data) for m_flags
    pstorage.o(i.pstorage_block_identifier_get) refers to pstorage.o(.bss) for m_app_table
    pstorage.o(i.pstorage_clear) refers to pstorage.o(i.is_word_aligned) for is_word_aligned
    pstorage.o(i.pstorage_clear) refers to pstorage.o(i.cmd_queue_enqueue) for cmd_queue_enqueue
    pstorage.o(i.pstorage_clear) refers to pstorage.o(.data) for m_flags
    pstorage.o(i.pstorage_clear) refers to pstorage.o(.bss) for m_app_table
    pstorage.o(i.pstorage_flash_page_end) refers to pstorage.o(i.pstorage_flash_page_size) for pstorage_flash_page_size
    pstorage.o(i.pstorage_init) refers to pstorage.o(i.cmd_queue_init) for cmd_queue_init
    pstorage.o(i.pstorage_init) refers to pstorage.o(i.pstorage_flash_page_end) for pstorage_flash_page_end
    pstorage.o(i.pstorage_init) refers to pstorage.o(i.pstorage_flash_page_size) for pstorage_flash_page_size
    pstorage.o(i.pstorage_init) refers to pstorage.o(.data) for m_next_app_instance
    pstorage.o(i.pstorage_init) refers to pstorage.o(.bss) for m_app_table
    pstorage.o(i.pstorage_load) refers to pstorage.o(i.is_word_aligned) for is_word_aligned
    pstorage.o(i.pstorage_load) refers to memcpya.o(.text) for __aeabi_memcpy
    pstorage.o(i.pstorage_load) refers to pstorage.o(.data) for m_flags
    pstorage.o(i.pstorage_load) refers to pstorage.o(.bss) for m_app_table
    pstorage.o(i.pstorage_register) refers to pstorage.o(i.pstorage_flash_page_size) for pstorage_flash_page_size
    pstorage.o(i.pstorage_register) refers to pstorage.o(i.pstorage_flash_page_end) for pstorage_flash_page_end
    pstorage.o(i.pstorage_register) refers to pstorage.o(.data) for m_flags
    pstorage.o(i.pstorage_register) refers to pstorage.o(.bss) for m_app_table
    pstorage.o(i.pstorage_store) refers to pstorage.o(i.is_word_aligned) for is_word_aligned
    pstorage.o(i.pstorage_store) refers to pstorage.o(i.cmd_queue_enqueue) for cmd_queue_enqueue
    pstorage.o(i.pstorage_store) refers to pstorage.o(.data) for m_flags
    pstorage.o(i.pstorage_store) refers to pstorage.o(.bss) for m_app_table
    pstorage.o(i.pstorage_sys_event_handler) refers to pstorage.o(i.flash_operation_success_run) for flash_operation_success_run
    pstorage.o(i.pstorage_sys_event_handler) refers to pstorage.o(i.flash_operation_failure_run) for flash_operation_failure_run
    pstorage.o(i.pstorage_sys_event_handler) refers to pstorage.o(.data) for m_state
    pstorage.o(i.pstorage_update) refers to pstorage.o(i.is_word_aligned) for is_word_aligned
    pstorage.o(i.pstorage_update) refers to pstorage.o(i.cmd_queue_enqueue) for cmd_queue_enqueue
    pstorage.o(i.pstorage_update) refers to pstorage.o(.data) for m_flags
    pstorage.o(i.pstorage_update) refers to pstorage.o(.bss) for m_app_table
    pstorage.o(i.sm_state_change) refers to pstorage.o(i.state_entry_action_run) for state_entry_action_run
    pstorage.o(i.sm_state_change) refers to pstorage.o(.data) for m_state
    pstorage.o(i.state_data_erase_entry_run) refers to pstorage.o(i.flash_page_erase) for flash_page_erase
    pstorage.o(i.state_data_erase_entry_run) refers to pstorage.o(.data) for m_current_page_id
    pstorage.o(i.state_data_erase_swap_entry_run) refers to pstorage.o(i.pstorage_flash_page_size) for pstorage_flash_page_size
    pstorage.o(i.state_data_erase_swap_entry_run) refers to pstorage.o(i.swap_sub_state_state_change) for swap_sub_state_state_change
    pstorage.o(i.state_data_erase_swap_entry_run) refers to pstorage.o(.data) for m_flags
    pstorage.o(i.state_data_erase_swap_entry_run) refers to pstorage.o(.bss) for m_cmd_queue
    pstorage.o(i.state_entry_action_run) refers to pstorage.o(i.state_idle_entry_run) for state_idle_entry_run
    pstorage.o(i.state_entry_action_run) refers to pstorage.o(i.state_store_entry_run) for state_store_entry_run
    pstorage.o(i.state_entry_action_run) refers to pstorage.o(i.state_data_erase_swap_entry_run) for state_data_erase_swap_entry_run
    pstorage.o(i.state_entry_action_run) refers to pstorage.o(i.state_data_erase_entry_run) for state_data_erase_entry_run
    pstorage.o(i.state_entry_action_run) refers to pstorage.o(.data) for m_state
    pstorage.o(i.state_erase_data_page_entry_run) refers to pstorage.o(i.flash_page_erase) for flash_page_erase
    pstorage.o(i.state_erase_data_page_entry_run) refers to pstorage.o(.data) for m_current_page_id
    pstorage.o(i.state_idle_entry_run) refers to pstorage.o(i.cmd_queue_dequeue) for cmd_queue_dequeue
    pstorage.o(i.state_idle_entry_run) refers to pstorage.o(.data) for m_num_of_command_retries
    pstorage.o(i.state_restore_head_entry_run) refers to pstorage.o(i.pstorage_flash_page_end) for pstorage_flash_page_end
    pstorage.o(i.state_restore_head_entry_run) refers to pstorage.o(i.pstorage_flash_page_size) for pstorage_flash_page_size
    pstorage.o(i.state_restore_head_entry_run) refers to pstorage.o(i.flash_write) for flash_write
    pstorage.o(i.state_restore_head_entry_run) refers to pstorage.o(.data) for m_current_page_id
    pstorage.o(i.state_restore_tail_entry_run) refers to pstorage.o(i.pstorage_flash_page_size) for pstorage_flash_page_size
    pstorage.o(i.state_restore_tail_entry_run) refers to pstorage.o(i.pstorage_flash_page_end) for pstorage_flash_page_end
    pstorage.o(i.state_restore_tail_entry_run) refers to pstorage.o(i.flash_write) for flash_write
    pstorage.o(i.state_restore_tail_entry_run) refers to pstorage.o(.bss) for m_cmd_queue
    pstorage.o(i.state_restore_tail_entry_run) refers to pstorage.o(.data) for m_tail_word_size
    pstorage.o(i.state_store_entry_run) refers to pstorage.o(i.store_cmd_flash_write_execute) for store_cmd_flash_write_execute
    pstorage.o(i.state_swap_erase_entry_run) refers to pstorage.o(i.pstorage_flash_page_end) for pstorage_flash_page_end
    pstorage.o(i.state_swap_erase_entry_run) refers to pstorage.o(i.pstorage_flash_page_size) for pstorage_flash_page_size
    pstorage.o(i.state_swap_erase_entry_run) refers to pstorage.o(i.flash_page_erase) for flash_page_erase
    pstorage.o(i.state_write_data_swap_entry_run) refers to pstorage.o(i.pstorage_flash_page_size) for pstorage_flash_page_size
    pstorage.o(i.state_write_data_swap_entry_run) refers to pstorage.o(i.pstorage_flash_page_end) for pstorage_flash_page_end
    pstorage.o(i.state_write_data_swap_entry_run) refers to pstorage.o(i.flash_write) for flash_write
    pstorage.o(i.state_write_data_swap_entry_run) refers to pstorage.o(.data) for m_current_page_id
    pstorage.o(i.store_cmd_flash_write_execute) refers to pstorage.o(i.pstorage_flash_page_size) for pstorage_flash_page_size
    pstorage.o(i.store_cmd_flash_write_execute) refers to pstorage.o(i.flash_write) for flash_write
    pstorage.o(i.store_cmd_flash_write_execute) refers to pstorage.o(.bss) for m_cmd_queue
    pstorage.o(i.store_cmd_flash_write_execute) refers to pstorage.o(.data) for m_num_of_bytes_written
    pstorage.o(i.store_operation_execute) refers to pstorage.o(i.sm_state_change) for sm_state_change
    pstorage.o(i.store_sub_state_sm_run) refers to pstorage.o(i.command_end_procedure_run) for command_end_procedure_run
    pstorage.o(i.store_sub_state_sm_run) refers to pstorage.o(i.store_cmd_flash_write_execute) for store_cmd_flash_write_execute
    pstorage.o(i.store_sub_state_sm_run) refers to pstorage.o(i.main_state_err_busy_process) for main_state_err_busy_process
    pstorage.o(i.store_sub_state_sm_run) refers to pstorage.o(.data) for m_flags
    pstorage.o(i.store_sub_state_sm_run) refers to pstorage.o(.bss) for m_cmd_queue
    pstorage.o(i.swap_erase_state_run) refers to pstorage.o(i.swap_sub_state_state_change) for swap_sub_state_state_change
    pstorage.o(i.swap_erase_state_run) refers to pstorage.o(i.swap_sub_state_err_busy_process) for swap_sub_state_err_busy_process
    pstorage.o(i.swap_erase_state_run) refers to pstorage.o(.data) for m_flags
    pstorage.o(i.swap_sub_sm_exit_action_run) refers to pstorage.o(i.clear_post_processing_run) for clear_post_processing_run
    pstorage.o(i.swap_sub_state_entry_action_run) refers to pstorage.o(.constdata) for swap_sub_state_sm_lut
    pstorage.o(i.swap_sub_state_entry_action_run) refers to pstorage.o(.data) for m_swap_sub_state
    pstorage.o(i.swap_sub_state_err_busy_process) refers to pstorage.o(i.swap_sub_state_state_change) for swap_sub_state_state_change
    pstorage.o(i.swap_sub_state_err_busy_process) refers to pstorage.o(.data) for m_flags
    pstorage.o(i.swap_sub_state_sm_run) refers to pstorage.o(.constdata) for swap_sub_state_sm_lut
    pstorage.o(i.swap_sub_state_sm_run) refers to pstorage.o(.data) for m_swap_sub_state
    pstorage.o(i.swap_sub_state_state_change) refers to pstorage.o(i.swap_sub_state_entry_action_run) for swap_sub_state_entry_action_run
    pstorage.o(i.swap_sub_state_state_change) refers to pstorage.o(.data) for m_swap_sub_state
    pstorage.o(i.tail_restore_state_run) refers to pstorage.o(i.swap_sub_sm_exit_action_run) for swap_sub_sm_exit_action_run
    pstorage.o(i.tail_restore_state_run) refers to pstorage.o(i.swap_sub_state_err_busy_process) for swap_sub_state_err_busy_process
    pstorage.o(i.tail_restore_state_run) refers to pstorage.o(.data) for m_flags
    pstorage.o(i.tail_word_size_calculate) refers to pstorage.o(i.pstorage_flash_page_size) for pstorage_flash_page_size
    pstorage.o(i.tail_word_size_calculate) refers to pstorage.o(.data) for m_tail_word_size
    pstorage.o(i.update_operation_execute) refers to pstorage.o(i.clear_operation_execute) for clear_operation_execute
    pstorage.o(.constdata) refers to pstorage.o(i.state_swap_erase_entry_run) for state_swap_erase_entry_run
    pstorage.o(.constdata) refers to pstorage.o(i.state_write_data_swap_entry_run) for state_write_data_swap_entry_run
    pstorage.o(.constdata) refers to pstorage.o(i.state_erase_data_page_entry_run) for state_erase_data_page_entry_run
    pstorage.o(.constdata) refers to pstorage.o(i.state_restore_tail_entry_run) for state_restore_tail_entry_run
    pstorage.o(.constdata) refers to pstorage.o(i.state_restore_head_entry_run) for state_restore_head_entry_run
    pstorage.o(.constdata) refers to pstorage.o(i.swap_erase_state_run) for swap_erase_state_run
    pstorage.o(.constdata) refers to pstorage.o(i.data_to_swap_write_state_run) for data_to_swap_write_state_run
    pstorage.o(.constdata) refers to pstorage.o(i.data_page_erase_state_run) for data_page_erase_state_run
    pstorage.o(.constdata) refers to pstorage.o(i.tail_restore_state_run) for tail_restore_state_run
    pstorage.o(.constdata) refers to pstorage.o(i.head_restore_state_run) for head_restore_state_run
    app_button.o(i.app_button_disable) refers to nrf_drv_gpiote.o(i.nrf_drv_gpiote_in_event_disable) for nrf_drv_gpiote_in_event_disable
    app_button.o(i.app_button_disable) refers to app_timer.o(i.app_timer_stop) for app_timer_stop
    app_button.o(i.app_button_disable) refers to app_button.o(.data) for mp_buttons
    app_button.o(i.app_button_disable) refers to app_button.o(.constdata) for m_detection_delay_timer_id
    app_button.o(i.app_button_enable) refers to nrf_drv_gpiote.o(i.nrf_drv_gpiote_in_event_enable) for nrf_drv_gpiote_in_event_enable
    app_button.o(i.app_button_enable) refers to app_button.o(.data) for mp_buttons
    app_button.o(i.app_button_init) refers to nrf_drv_gpiote.o(i.nrf_drv_gpiote_is_init) for nrf_drv_gpiote_is_init
    app_button.o(i.app_button_init) refers to nrf_drv_gpiote.o(i.nrf_drv_gpiote_init) for nrf_drv_gpiote_init
    app_button.o(i.app_button_init) refers to nrf_drv_gpiote.o(i.nrf_drv_gpiote_in_init) for nrf_drv_gpiote_in_init
    app_button.o(i.app_button_init) refers to app_timer.o(i.app_timer_create) for app_timer_create
    app_button.o(i.app_button_init) refers to app_button.o(.data) for mp_buttons
    app_button.o(i.app_button_init) refers to app_button.o(.constdata) for .constdata
    app_button.o(i.app_button_init) refers to app_button.o(i.gpiote_event_handler) for gpiote_event_handler
    app_button.o(i.app_button_init) refers to app_button.o(i.detection_delay_timeout_handler) for detection_delay_timeout_handler
    app_button.o(i.app_button_is_pushed) refers to nrf_drv_gpiote.o(i.nrf_drv_gpiote_in_is_set) for nrf_drv_gpiote_in_is_set
    app_button.o(i.app_button_is_pushed) refers to app_button.o(.data) for mp_buttons
    app_button.o(i.detection_delay_timeout_handler) refers to nrf_drv_gpiote.o(i.nrf_drv_gpiote_in_is_set) for nrf_drv_gpiote_in_is_set
    app_button.o(i.detection_delay_timeout_handler) refers to app_button.o(.data) for mp_buttons
    app_button.o(i.gpiote_event_handler) refers to app_timer.o(i.app_timer_stop) for app_timer_stop
    app_button.o(i.gpiote_event_handler) refers to nrf_drv_gpiote.o(i.nrf_drv_gpiote_in_is_set) for nrf_drv_gpiote_in_is_set
    app_button.o(i.gpiote_event_handler) refers to app_timer.o(i.app_timer_start) for app_timer_start
    app_button.o(i.gpiote_event_handler) refers to app_button.o(.constdata) for m_detection_delay_timer_id
    app_button.o(i.gpiote_event_handler) refers to app_button.o(.data) for m_pin_transition
    app_button.o(.constdata) refers to app_button.o(.bss) for m_detection_delay_timer_id_data
    app_error.o(i.app_error_handler) refers to app_error_weak.o(i.app_error_fault_handler) for app_error_fault_handler
    app_error.o(i.app_error_handler_bare) refers to app_error_weak.o(i.app_error_fault_handler) for app_error_fault_handler
    app_error.o(i.app_error_save_and_stop) refers to app_error.o(.bss) for m_error_data
    app_error_weak.o(i.app_error_fault_handler) refers to bsp.o(i.bsp_indication_set) for bsp_indication_set
    app_error_weak.o(i.app_error_fault_handler) refers to app_error.o(i.app_error_save_and_stop) for app_error_save_and_stop
    app_timer.o(i.RTC1_IRQHandler) refers to app_timer.o(i.timer_timeouts_check) for timer_timeouts_check
    app_timer.o(i.SWI0_EGU0_IRQHandler) refers to app_timer.o(i.timer_list_handler) for timer_list_handler
    app_timer.o(i.app_timer_cnt_diff_compute) refers to app_timer.o(i.ticks_diff_get) for ticks_diff_get
    app_timer.o(i.app_timer_cnt_get) refers to app_timer.o(i.rtc1_counter_get) for rtc1_counter_get
    app_timer.o(i.app_timer_create) refers to app_timer.o(.data) for mp_users
    app_timer.o(i.app_timer_init) refers to app_timer.o(i.rtc1_stop) for rtc1_stop
    app_timer.o(i.app_timer_init) refers to app_timer.o(i.NVIC_ClearPendingIRQ) for NVIC_ClearPendingIRQ
    app_timer.o(i.app_timer_init) refers to app_timer.o(i.NVIC_SetPriority) for NVIC_SetPriority
    app_timer.o(i.app_timer_init) refers to app_timer.o(i.NVIC_EnableIRQ) for NVIC_EnableIRQ
    app_timer.o(i.app_timer_init) refers to app_timer.o(i.rtc1_init) for rtc1_init
    app_timer.o(i.app_timer_init) refers to app_timer.o(i.rtc1_counter_get) for rtc1_counter_get
    app_timer.o(i.app_timer_init) refers to app_timer.o(.data) for mp_users
    app_timer.o(i.app_timer_start) refers to app_timer.o(i.user_id_get) for user_id_get
    app_timer.o(i.app_timer_start) refers to app_timer.o(i.timer_start_op_schedule) for timer_start_op_schedule
    app_timer.o(i.app_timer_start) refers to app_timer.o(.data) for mp_users
    app_timer.o(i.app_timer_stop) refers to app_timer.o(i.user_id_get) for user_id_get
    app_timer.o(i.app_timer_stop) refers to app_timer.o(i.timer_stop_op_schedule) for timer_stop_op_schedule
    app_timer.o(i.app_timer_stop) refers to app_timer.o(.data) for mp_users
    app_timer.o(i.app_timer_stop_all) refers to app_timer.o(i.user_id_get) for user_id_get
    app_timer.o(i.app_timer_stop_all) refers to app_timer.o(i.timer_stop_all_op_schedule) for timer_stop_all_op_schedule
    app_timer.o(i.app_timer_stop_all) refers to app_timer.o(.data) for mp_users
    app_timer.o(i.compare_reg_update) refers to app_timer.o(i.rtc1_counter_get) for rtc1_counter_get
    app_timer.o(i.compare_reg_update) refers to app_timer.o(i.ticks_diff_get) for ticks_diff_get
    app_timer.o(i.compare_reg_update) refers to app_timer.o(i.rtc1_start) for rtc1_start
    app_timer.o(i.compare_reg_update) refers to app_timer.o(i.rtc1_compare0_set) for rtc1_compare0_set
    app_timer.o(i.compare_reg_update) refers to app_timer.o(.emb_text) for __asm___11_app_timer_c_cd27f9c3__nrf_delay_us
    app_timer.o(i.compare_reg_update) refers to app_timer.o(i.timer_timeouts_check_sched) for timer_timeouts_check_sched
    app_timer.o(i.compare_reg_update) refers to app_timer.o(i.rtc1_stop) for rtc1_stop
    app_timer.o(i.compare_reg_update) refers to app_timer.o(.data) for mp_timer_id_head
    app_timer.o(i.elapsed_ticks_acquire) refers to app_timer.o(.data) for m_ticks_elapsed_q_read_ind
    app_timer.o(i.expired_timers_handler) refers to app_timer.o(.data) for mp_timer_id_head
    app_timer.o(i.list_deletions_handler) refers to app_timer.o(i.timer_list_remove) for timer_list_remove
    app_timer.o(i.list_deletions_handler) refers to app_timer.o(.data) for mp_timer_id_head
    app_timer.o(i.list_insertions_handler) refers to app_timer.o(i.ticks_diff_get) for ticks_diff_get
    app_timer.o(i.list_insertions_handler) refers to app_timer.o(i.timer_list_insert) for timer_list_insert
    app_timer.o(i.list_insertions_handler) refers to app_timer.o(.data) for mp_timer_id_head
    app_timer.o(i.rtc1_init) refers to app_timer.o(i.NVIC_SetPriority) for NVIC_SetPriority
    app_timer.o(i.rtc1_start) refers to app_timer.o(i.NVIC_ClearPendingIRQ) for NVIC_ClearPendingIRQ
    app_timer.o(i.rtc1_start) refers to app_timer.o(i.NVIC_EnableIRQ) for NVIC_EnableIRQ
    app_timer.o(i.rtc1_start) refers to app_timer.o(.emb_text) for __asm___11_app_timer_c_cd27f9c3__nrf_delay_us
    app_timer.o(i.rtc1_start) refers to app_timer.o(.data) for m_rtc1_running
    app_timer.o(i.rtc1_stop) refers to app_timer.o(.emb_text) for __asm___11_app_timer_c_cd27f9c3__nrf_delay_us
    app_timer.o(i.rtc1_stop) refers to app_timer.o(.data) for m_ticks_latest
    app_timer.o(i.timeout_handler_exec) refers to app_error.o(i.app_error_handler) for app_error_handler
    app_timer.o(i.timeout_handler_exec) refers to app_timer.o(.data) for m_evt_schedule_func
    app_timer.o(i.timer_list_handler) refers to app_timer.o(i.elapsed_ticks_acquire) for elapsed_ticks_acquire
    app_timer.o(i.timer_list_handler) refers to app_timer.o(i.list_deletions_handler) for list_deletions_handler
    app_timer.o(i.timer_list_handler) refers to app_timer.o(i.expired_timers_handler) for expired_timers_handler
    app_timer.o(i.timer_list_handler) refers to app_timer.o(i.list_insertions_handler) for list_insertions_handler
    app_timer.o(i.timer_list_handler) refers to app_timer.o(i.compare_reg_update) for compare_reg_update
    app_timer.o(i.timer_list_handler) refers to app_timer.o(.data) for m_ticks_latest
    app_timer.o(i.timer_list_handler_sched) refers to app_timer.o(i.NVIC_SetPendingIRQ) for NVIC_SetPendingIRQ
    app_timer.o(i.timer_list_insert) refers to app_timer.o(.data) for mp_timer_id_head
    app_timer.o(i.timer_list_remove) refers to app_timer.o(.data) for mp_timer_id_head
    app_timer.o(i.timer_start_op_schedule) refers to app_timer.o(i.user_op_alloc) for user_op_alloc
    app_timer.o(i.timer_start_op_schedule) refers to app_timer.o(i.rtc1_counter_get) for rtc1_counter_get
    app_timer.o(i.timer_start_op_schedule) refers to app_timer.o(i.user_op_enque) for user_op_enque
    app_timer.o(i.timer_start_op_schedule) refers to app_timer.o(i.timer_list_handler_sched) for timer_list_handler_sched
    app_timer.o(i.timer_start_op_schedule) refers to app_timer.o(.data) for mp_users
    app_timer.o(i.timer_stop_all_op_schedule) refers to app_timer.o(i.user_op_alloc) for user_op_alloc
    app_timer.o(i.timer_stop_all_op_schedule) refers to app_timer.o(i.user_op_enque) for user_op_enque
    app_timer.o(i.timer_stop_all_op_schedule) refers to app_timer.o(i.timer_list_handler_sched) for timer_list_handler_sched
    app_timer.o(i.timer_stop_all_op_schedule) refers to app_timer.o(.data) for mp_users
    app_timer.o(i.timer_stop_op_schedule) refers to app_timer.o(i.user_op_alloc) for user_op_alloc
    app_timer.o(i.timer_stop_op_schedule) refers to app_timer.o(i.user_op_enque) for user_op_enque
    app_timer.o(i.timer_stop_op_schedule) refers to app_timer.o(i.timer_list_handler_sched) for timer_list_handler_sched
    app_timer.o(i.timer_stop_op_schedule) refers to app_timer.o(.data) for mp_users
    app_timer.o(i.timer_timeouts_check) refers to app_timer.o(i.rtc1_counter_get) for rtc1_counter_get
    app_timer.o(i.timer_timeouts_check) refers to app_timer.o(i.ticks_diff_get) for ticks_diff_get
    app_timer.o(i.timer_timeouts_check) refers to app_timer.o(i.timeout_handler_exec) for timeout_handler_exec
    app_timer.o(i.timer_timeouts_check) refers to app_timer.o(i.timer_list_handler_sched) for timer_list_handler_sched
    app_timer.o(i.timer_timeouts_check) refers to app_timer.o(.data) for mp_timer_id_head
    app_timer.o(i.timer_timeouts_check_sched) refers to app_timer.o(i.NVIC_SetPendingIRQ) for NVIC_SetPendingIRQ
    app_util_platform.o(i.app_util_critical_region_enter) refers to app_util_platform.o(i.sd_nvic_critical_region_enter) for sd_nvic_critical_region_enter
    app_util_platform.o(i.app_util_critical_region_exit) refers to app_util_platform.o(i.__sd_nvic_irq_disable) for __sd_nvic_irq_disable
    app_util_platform.o(i.app_util_critical_region_exit) refers to softdevice_handler.o(.bss) for nrf_nvic_state
    app_util_platform.o(i.app_util_disable_irq) refers to app_util_platform.o(.data) for m_in_critical_region
    app_util_platform.o(i.app_util_enable_irq) refers to app_util_platform.o(.data) for m_in_critical_region
    app_util_platform.o(i.sd_nvic_critical_region_enter) refers to app_util_platform.o(i.__sd_nvic_irq_disable) for __sd_nvic_irq_disable
    app_util_platform.o(i.sd_nvic_critical_region_enter) refers to softdevice_handler.o(.bss) for nrf_nvic_state
    fstorage.o(i.fs_erase) refers to fstorage.o(i.check_config) for check_config
    fstorage.o(i.fs_erase) refers to fstorage.o(i.queue_get_next_free) for queue_get_next_free
    fstorage.o(i.fs_erase) refers to fstorage.o(i.queue_start) for queue_start
    fstorage.o(i.fs_erase) refers to fstorage.o(.data) for m_flags
    fstorage.o(i.fs_init) refers to fstorage.o(i.fs_flash_page_end_addr) for fs_flash_page_end_addr
    fstorage.o(i.fs_init) refers to fstorage.o(.data) for m_flags
    fstorage.o(i.fs_queued_op_count_get) refers to fstorage.o(.bss) for m_queue
    fstorage.o(i.fs_store) refers to fstorage.o(i.check_config) for check_config
    fstorage.o(i.fs_store) refers to fstorage.o(i.queue_get_next_free) for queue_get_next_free
    fstorage.o(i.fs_store) refers to fstorage.o(i.queue_start) for queue_start
    fstorage.o(i.fs_store) refers to fstorage.o(.data) for m_flags
    fstorage.o(i.fs_sys_event_handler) refers to fstorage.o(i.on_operation_success) for on_operation_success
    fstorage.o(i.fs_sys_event_handler) refers to fstorage.o(i.on_operation_failure) for on_operation_failure
    fstorage.o(i.fs_sys_event_handler) refers to fstorage.o(i.queue_process) for queue_process
    fstorage.o(i.fs_sys_event_handler) refers to fstorage.o(.bss) for m_queue
    fstorage.o(i.fs_sys_event_handler) refers to fstorage.o(.data) for m_flags
    fstorage.o(i.on_operation_failure) refers to fstorage.o(i.send_event) for send_event
    fstorage.o(i.on_operation_failure) refers to fstorage.o(i.queue_advance) for queue_advance
    fstorage.o(i.on_operation_failure) refers to fstorage.o(.data) for m_retry_count
    fstorage.o(i.on_operation_success) refers to fstorage.o(i.send_event) for send_event
    fstorage.o(i.on_operation_success) refers to fstorage.o(i.queue_advance) for queue_advance
    fstorage.o(i.on_operation_success) refers to fstorage.o(.data) for m_retry_count
    fstorage.o(i.queue_advance) refers to fstorage.o(.bss) for m_queue
    fstorage.o(i.queue_advance) refers to fstorage.o(.data) for m_flags
    fstorage.o(i.queue_get_next_free) refers to memseta.o(.text) for __aeabi_memclr4
    fstorage.o(i.queue_get_next_free) refers to fstorage.o(.bss) for m_queue
    fstorage.o(i.queue_process) refers to fstorage.o(i.store_execute) for store_execute
    fstorage.o(i.queue_process) refers to fstorage.o(i.erase_execute) for erase_execute
    fstorage.o(i.queue_process) refers to fstorage.o(i.send_event) for send_event
    fstorage.o(i.queue_process) refers to fstorage.o(.bss) for m_queue
    fstorage.o(i.queue_process) refers to fstorage.o(.data) for m_flags
    fstorage.o(i.queue_start) refers to fstorage.o(i.queue_process) for queue_process
    fstorage.o(i.queue_start) refers to fstorage.o(.data) for m_flags
    nrf_log.o(i.log_hex) refers to nrf_log.o(.bss) for hex_string
    nrf_log.o(i.log_hex_char) refers to nrf_log.o(.data) for hex_string
    nrf_log.o(i.log_uart_init) refers to app_uart.o(i.app_uart_init) for app_uart_init
    nrf_log.o(i.log_uart_init) refers to nrf_log.o(.data) for initialized
    nrf_log.o(i.log_uart_init) refers to nrf_log.o(.constdata) for .constdata
    nrf_log.o(i.log_uart_init) refers to nrf_log.o(.bss) for tx_buf
    nrf_log.o(i.log_uart_init) refers to nrf_log.o(i.uart_error_cb) for uart_error_cb
    nrf_log.o(i.log_uart_printf) refers to printfa.o(i.__0vprintf) for vprintf
    nrf_log.o(i.log_uart_read_input) refers to app_uart.o(i.app_uart_get) for app_uart_get
    nrf_log.o(i.log_uart_read_input) refers to nrf_log.o(.data) for m_uart_has_input
    nrf_log.o(i.log_uart_write_hex) refers to app_uart.o(i.app_uart_put) for app_uart_put
    nrf_log.o(i.log_uart_write_hex_char) refers to app_uart.o(i.app_uart_put) for app_uart_put
    nrf_log.o(i.uart_error_cb) refers to app_error.o(i.app_error_handler) for app_error_handler
    retarget.o(i.fgetc) refers to app_uart.o(i.app_uart_get) for app_uart_get
    retarget.o(i.fputc) refers to app_uart.o(i.app_uart_put) for app_uart_put
    sensorsim.o(i.sensorsim_measure) refers to sensorsim.o(i.sensorsim_increment) for sensorsim_increment
    sensorsim.o(i.sensorsim_measure) refers to sensorsim.o(i.sensorsim_decrement) for sensorsim_decrement
    softdevice_handler.o(i.SWI2_EGU2_IRQHandler) refers to app_error.o(i.app_error_handler) for app_error_handler
    softdevice_handler.o(i.SWI2_EGU2_IRQHandler) refers to softdevice_handler.o(i.intern_softdevice_events_execute) for intern_softdevice_events_execute
    softdevice_handler.o(i.SWI2_EGU2_IRQHandler) refers to softdevice_handler.o(.data) for m_evt_schedule_func
    softdevice_handler.o(i.SWI2_EGU2_IRQHandler) refers to softdevice_handler.o(.conststring) for .conststring
    softdevice_handler.o(i.intern_softdevice_events_execute) refers to app_error.o(i.app_error_handler) for app_error_handler
    softdevice_handler.o(i.intern_softdevice_events_execute) refers to softdevice_handler.o(.data) for m_softdevice_enabled
    softdevice_handler.o(i.intern_softdevice_events_execute) refers to softdevice_handler.o(.conststring) for .conststring
    softdevice_handler.o(i.sd_nvic_EnableIRQ) refers to softdevice_handler.o(.bss) for nrf_nvic_state
    softdevice_handler.o(i.softdevice_ble_evt_handler_set) refers to softdevice_handler.o(.data) for m_ble_evt_handler
    softdevice_handler.o(i.softdevice_enable_get_default_config) refers to memseta.o(.text) for __aeabi_memclr4
    softdevice_handler.o(i.softdevice_fault_handler) refers to app_error_weak.o(i.app_error_fault_handler) for app_error_fault_handler
    softdevice_handler.o(i.softdevice_handler_init) refers to softdevice_handler.o(i.sd_nvic_EnableIRQ) for sd_nvic_EnableIRQ
    softdevice_handler.o(i.softdevice_handler_init) refers to softdevice_handler.o(.data) for mp_ble_evt_buffer
    softdevice_handler.o(i.softdevice_handler_init) refers to softdevice_handler.o(i.softdevice_fault_handler) for softdevice_fault_handler
    softdevice_handler.o(i.softdevice_handler_isEnabled) refers to softdevice_handler.o(.data) for m_softdevice_enabled
    softdevice_handler.o(i.softdevice_handler_sd_disable) refers to softdevice_handler.o(.data) for m_softdevice_enabled
    softdevice_handler.o(i.softdevice_sys_evt_handler_set) refers to softdevice_handler.o(.data) for m_sys_evt_handler
    arm_startup_nrf52.o(RESET) refers to arm_startup_nrf52.o(STACK) for __initial_sp
    arm_startup_nrf52.o(RESET) refers to arm_startup_nrf52.o(.text) for Reset_Handler
    arm_startup_nrf52.o(RESET) refers to nrf_drv_uart.o(i.UARTE0_UART0_IRQHandler) for UARTE0_UART0_IRQHandler
    arm_startup_nrf52.o(RESET) refers to nrf_drv_gpiote.o(i.GPIOTE_IRQHandler) for GPIOTE_IRQHandler
    arm_startup_nrf52.o(RESET) refers to app_timer.o(i.RTC1_IRQHandler) for RTC1_IRQHandler
    arm_startup_nrf52.o(RESET) refers to app_timer.o(i.SWI0_EGU0_IRQHandler) for SWI0_EGU0_IRQHandler
    arm_startup_nrf52.o(RESET) refers to softdevice_handler.o(i.SWI2_EGU2_IRQHandler) for SWI2_EGU2_IRQHandler
    arm_startup_nrf52.o(.text) refers to system_nrf52.o(i.SystemInit) for SystemInit
    arm_startup_nrf52.o(.text) refers to entry.o(.ARM.Collect$$$$00000000) for __main
    system_nrf52.o(i.SystemCoreClockUpdate) refers to system_nrf52.o(.data) for SystemCoreClock
    system_nrf52.o(i.SystemInit) refers to system_nrf52.o(i.errata_16) for errata_16
    system_nrf52.o(i.SystemInit) refers to system_nrf52.o(i.errata_31) for errata_31
    system_nrf52.o(i.SystemInit) refers to system_nrf52.o(i.errata_32) for errata_32
    system_nrf52.o(i.SystemInit) refers to system_nrf52.o(i.errata_36) for errata_36
    system_nrf52.o(i.SystemInit) refers to system_nrf52.o(i.errata_37) for errata_37
    system_nrf52.o(i.SystemInit) refers to system_nrf52.o(i.errata_57) for errata_57
    system_nrf52.o(i.SystemInit) refers to system_nrf52.o(i.errata_66) for errata_66
    system_nrf52.o(i.SystemInit) refers to system_nrf52.o(i.SystemCoreClockUpdate) for SystemCoreClockUpdate
    entry.o(.ARM.Collect$$$$00000000) refers (Special) to entry10a.o(.ARM.Collect$$$$0000000D) for __rt_final_cpp
    entry.o(.ARM.Collect$$$$00000000) refers (Special) to entry11a.o(.ARM.Collect$$$$0000000F) for __rt_final_exit
    entry.o(.ARM.Collect$$$$00000000) refers (Special) to entry7b.o(.ARM.Collect$$$$00000008) for _main_clock
    entry.o(.ARM.Collect$$$$00000000) refers (Special) to entry8b.o(.ARM.Collect$$$$0000000A) for _main_cpp_init
    entry.o(.ARM.Collect$$$$00000000) refers (Special) to entry9a.o(.ARM.Collect$$$$0000000B) for _main_init
    entry.o(.ARM.Collect$$$$00000000) refers (Special) to entry5.o(.ARM.Collect$$$$00000004) for _main_scatterload
    entry.o(.ARM.Collect$$$$00000000) refers (Special) to entry2.o(.ARM.Collect$$$$00000001) for _main_stk
    printfa.o(i.__0fprintf) refers (Special) to iusefp.o(.text) for __I$use$fp
    printfa.o(i.__0fprintf) refers to printfa.o(i._printf_core) for _printf_core
    printfa.o(i.__0fprintf) refers to retarget.o(i.fputc) for fputc
    printfa.o(i.__0printf) refers (Special) to iusefp.o(.text) for __I$use$fp
    printfa.o(i.__0printf) refers to printfa.o(i._printf_core) for _printf_core
    printfa.o(i.__0printf) refers to retarget.o(i.fputc) for fputc
    printfa.o(i.__0printf) refers to retarget.o(.data) for __stdout
    printfa.o(i.__0snprintf) refers (Special) to iusefp.o(.text) for __I$use$fp
    printfa.o(i.__0snprintf) refers to printfa.o(i._printf_core) for _printf_core
    printfa.o(i.__0snprintf) refers to printfa.o(i._snputc) for _snputc
    printfa.o(i.__0sprintf) refers (Special) to iusefp.o(.text) for __I$use$fp
    printfa.o(i.__0sprintf) refers to printfa.o(i._printf_core) for _printf_core
    printfa.o(i.__0sprintf) refers to printfa.o(i._sputc) for _sputc
    printfa.o(i.__0vfprintf) refers (Special) to iusefp.o(.text) for __I$use$fp
    printfa.o(i.__0vfprintf) refers to printfa.o(i._printf_core) for _printf_core
    printfa.o(i.__0vfprintf) refers to retarget.o(i.fputc) for fputc
    printfa.o(i.__0vprintf) refers (Special) to iusefp.o(.text) for __I$use$fp
    printfa.o(i.__0vprintf) refers to printfa.o(i._printf_core) for _printf_core
    printfa.o(i.__0vprintf) refers to retarget.o(i.fputc) for fputc
    printfa.o(i.__0vprintf) refers to retarget.o(.data) for __stdout
    printfa.o(i.__0vsnprintf) refers (Special) to iusefp.o(.text) for __I$use$fp
    printfa.o(i.__0vsnprintf) refers to printfa.o(i._printf_core) for _printf_core
    printfa.o(i.__0vsnprintf) refers to printfa.o(i._snputc) for _snputc
    printfa.o(i.__0vsprintf) refers (Special) to iusefp.o(.text) for __I$use$fp
    printfa.o(i.__0vsprintf) refers to printfa.o(i._printf_core) for _printf_core
    printfa.o(i.__0vsprintf) refers to printfa.o(i._sputc) for _sputc
    printfa.o(i._fp_digits) refers (Special) to iusefp.o(.text) for __I$use$fp
    printfa.o(i._fp_digits) refers to dmul.o(.text) for __aeabi_dmul
    printfa.o(i._fp_digits) refers to ddiv.o(.text) for __aeabi_ddiv
    printfa.o(i._fp_digits) refers to cdrcmple.o(.text) for __aeabi_cdrcmple
    printfa.o(i._fp_digits) refers to dadd.o(.text) for __aeabi_dadd
    printfa.o(i._fp_digits) refers to dfixul.o(.text) for __aeabi_d2ulz
    printfa.o(i._fp_digits) refers to uldiv.o(.text) for __aeabi_uldivmod
    printfa.o(i._printf_core) refers (Special) to iusefp.o(.text) for __I$use$fp
    printfa.o(i._printf_core) refers to printfa.o(i._printf_pre_padding) for _printf_pre_padding
    printfa.o(i._printf_core) refers to uldiv.o(.text) for __aeabi_uldivmod
    printfa.o(i._printf_core) refers to printfa.o(i._printf_post_padding) for _printf_post_padding
    printfa.o(i._printf_core) refers to printfa.o(i._fp_digits) for _fp_digits
    printfa.o(i._printf_core) refers to uidiv.o(.text) for __aeabi_uidivmod
    printfa.o(i._printf_post_padding) refers (Special) to iusefp.o(.text) for __I$use$fp
    printfa.o(i._printf_pre_padding) refers (Special) to iusefp.o(.text) for __I$use$fp
    printfa.o(i._snputc) refers (Special) to iusefp.o(.text) for __I$use$fp
    printfa.o(i._sputc) refers (Special) to iusefp.o(.text) for __I$use$fp
    entry2.o(.ARM.Collect$$$$00000001) refers to entry2.o(.ARM.Collect$$$$00002712) for __lit__00000000
    entry2.o(.ARM.Collect$$$$00002712) refers to arm_startup_nrf52.o(STACK) for __initial_sp
    entry2.o(__vectab_stack_and_reset_area) refers to arm_startup_nrf52.o(STACK) for __initial_sp
    entry2.o(__vectab_stack_and_reset_area) refers to entry.o(.ARM.Collect$$$$00000000) for __main
    entry5.o(.ARM.Collect$$$$00000004) refers to init.o(.text) for __scatterload
    entry9a.o(.ARM.Collect$$$$0000000B) refers to main.o(i.main) for main
    entry9b.o(.ARM.Collect$$$$0000000C) refers to main.o(i.main) for main
    uldiv.o(.text) refers to llushr.o(.text) for __aeabi_llsr
    uldiv.o(.text) refers to llshl.o(.text) for __aeabi_llsl
    dadd.o(.text) refers to llshl.o(.text) for __aeabi_llsl
    dadd.o(.text) refers to llsshr.o(.text) for __aeabi_lasr
    dadd.o(.text) refers to depilogue.o(.text) for _double_epilogue
    dmul.o(.text) refers to depilogue.o(.text) for _double_epilogue
    ddiv.o(.text) refers to depilogue.o(.text) for _double_round
    dfixul.o(.text) refers to llushr.o(.text) for __aeabi_llsr
    dfixul.o(.text) refers to llshl.o(.text) for __aeabi_llsl
    init.o(.text) refers to entry5.o(.ARM.Collect$$$$00000004) for __main_after_scatterload
    depilogue.o(.text) refers to llshl.o(.text) for __aeabi_llsl
    depilogue.o(.text) refers to llushr.o(.text) for __aeabi_llsr
    nrf_log.o(i.log_uart_write_string) refers to app_uart.o(i.app_uart_put) for app_uart_put
    nrf_log.o(i.log_uart_write_string_many) refers to nrf_log.o(i.log_uart_write_string) for log_uart_write_string
    nrf_log.o(i.log_uart_has_input) refers to app_uart.o(i.app_uart_get) for app_uart_get
    nrf_log.o(i.log_uart_has_input) refers to nrf_log.o(.data) for m_uart_has_input


==============================================================================

Removing Unused input sections from the image.

    Removing main.o(.rev16_text), (4 bytes).
    Removing main.o(.revsh_text), (4 bytes).
    Removing main.o(.rrx_text), (6 bytes).
    Removing main.o(i.assert_nrf_callback), (24 bytes).
    Removing bsp.o(.rev16_text), (4 bytes).
    Removing bsp.o(.revsh_text), (4 bytes).
    Removing bsp.o(.rrx_text), (6 bytes).
    Removing bsp.o(i.bsp_buttons_disable), (8 bytes).
    Removing bsp.o(i.bsp_buttons_enable), (8 bytes).
    Removing bsp.o(i.bsp_buttons_state_get), (60 bytes).
    Removing bsp.o(i.bsp_indication_text_set), (18 bytes).
    Removing bsp_btn_ble.o(.rev16_text), (4 bytes).
    Removing bsp_btn_ble.o(.revsh_text), (4 bytes).
    Removing bsp_btn_ble.o(.rrx_text), (6 bytes).
    Removing ble_advdata.o(.rev16_text), (4 bytes).
    Removing ble_advdata.o(.revsh_text), (4 bytes).
    Removing ble_advdata.o(.rrx_text), (6 bytes).
    Removing ble_advertising.o(.rev16_text), (4 bytes).
    Removing ble_advertising.o(.revsh_text), (4 bytes).
    Removing ble_advertising.o(.rrx_text), (6 bytes).
    Removing ble_advertising.o(i.ble_advertising_peer_addr_reply), (56 bytes).
    Removing ble_advertising.o(i.ble_advertising_whitelist_reply), (100 bytes).
    Removing ble_conn_params.o(.rev16_text), (4 bytes).
    Removing ble_conn_params.o(.revsh_text), (4 bytes).
    Removing ble_conn_params.o(.rrx_text), (6 bytes).
    Removing ble_conn_params.o(i.ble_conn_params_change_conn_params), (104 bytes).
    Removing ble_conn_params.o(i.ble_conn_params_stop), (16 bytes).
    Removing ble_srv_common.o(.rev16_text), (4 bytes).
    Removing ble_srv_common.o(.revsh_text), (4 bytes).
    Removing ble_srv_common.o(.rrx_text), (6 bytes).
    Removing ble_srv_common.o(i.ble_srv_ascii_to_utf8), (18 bytes).
    Removing ble_srv_common.o(i.ble_srv_report_ref_encode), (124 bytes).
    Removing ble_srv_common.o(i.characteristic_add), (450 bytes).
    Removing ble_srv_common.o(i.descriptor_add), (190 bytes).
    Removing ble_srv_common.o(i.set_security_req), (190 bytes).
    Removing device_manager_peripheral.o(.rev16_text), (4 bytes).
    Removing device_manager_peripheral.o(.revsh_text), (4 bytes).
    Removing device_manager_peripheral.o(.rrx_text), (6 bytes).
    Removing device_manager_peripheral.o(i.dm_application_context_delete), (180 bytes).
    Removing device_manager_peripheral.o(i.dm_application_context_get), (216 bytes).
    Removing device_manager_peripheral.o(i.dm_application_context_set), (272 bytes).
    Removing device_manager_peripheral.o(i.dm_application_instance_set), (80 bytes).
    Removing device_manager_peripheral.o(i.dm_device_add), (8 bytes).
    Removing device_manager_peripheral.o(i.dm_device_delete), (116 bytes).
    Removing device_manager_peripheral.o(i.dm_device_delete_all), (112 bytes).
    Removing device_manager_peripheral.o(i.dm_distributed_keys_get), (232 bytes).
    Removing device_manager_peripheral.o(i.dm_handle_get), (108 bytes).
    Removing device_manager_peripheral.o(i.dm_peer_addr_get), (196 bytes).
    Removing device_manager_peripheral.o(i.dm_peer_addr_set), (192 bytes).
    Removing device_manager_peripheral.o(i.dm_security_setup_req), (156 bytes).
    Removing device_manager_peripheral.o(i.dm_security_status_req), (188 bytes).
    Removing device_manager_peripheral.o(i.dm_service_context_delete), (108 bytes).
    Removing device_manager_peripheral.o(i.dm_service_context_get), (264 bytes).
    Removing device_manager_peripheral.o(i.dm_service_context_set), (244 bytes).
    Removing device_manager_peripheral.o(i.dm_whitelist_create), (272 bytes).
    Removing app_uart.o(.rev16_text), (4 bytes).
    Removing app_uart.o(.revsh_text), (4 bytes).
    Removing app_uart.o(.rrx_text), (6 bytes).
    Removing app_uart.o(i.app_uart_close), (10 bytes).
    Removing app_uart.o(i.app_uart_flush), (4 bytes).
    Removing app_uart.o(i.app_uart_get), (32 bytes).
    Removing app_uart.o(i.app_uart_init), (160 bytes).
    Removing app_uart.o(i.app_uart_put), (40 bytes).
    Removing app_uart.o(i.uart_event_handler), (116 bytes).
    Removing app_uart.o(.constdata), (32 bytes).
    Removing app_uart.o(.data), (8 bytes).
    Removing nrf_delay.o(.rev16_text), (4 bytes).
    Removing nrf_delay.o(.revsh_text), (4 bytes).
    Removing nrf_delay.o(.rrx_text), (6 bytes).
    Removing nrf_delay.o(.emb_text), (118 bytes).
    Removing nrf_delay.o(i.nrf_delay_ms), (26 bytes).
    Removing nrf_drv_common.o(.rev16_text), (4 bytes).
    Removing nrf_drv_common.o(.revsh_text), (4 bytes).
    Removing nrf_drv_common.o(.rrx_text), (6 bytes).
    Removing nrf_drv_gpiote.o(.rev16_text), (4 bytes).
    Removing nrf_drv_gpiote.o(.revsh_text), (4 bytes).
    Removing nrf_drv_gpiote.o(.rrx_text), (6 bytes).
    Removing nrf_drv_gpiote.o(i.nrf_drv_gpiote_in_event_addr_get), (26 bytes).
    Removing nrf_drv_gpiote.o(i.nrf_drv_gpiote_in_event_disable), (84 bytes).
    Removing nrf_drv_gpiote.o(i.nrf_drv_gpiote_in_uninit), (58 bytes).
    Removing nrf_drv_gpiote.o(i.nrf_drv_gpiote_out_clear), (12 bytes).
    Removing nrf_drv_gpiote.o(i.nrf_drv_gpiote_out_init), (204 bytes).
    Removing nrf_drv_gpiote.o(i.nrf_drv_gpiote_out_set), (12 bytes).
    Removing nrf_drv_gpiote.o(i.nrf_drv_gpiote_out_task_addr_get), (28 bytes).
    Removing nrf_drv_gpiote.o(i.nrf_drv_gpiote_out_task_disable), (36 bytes).
    Removing nrf_drv_gpiote.o(i.nrf_drv_gpiote_out_task_enable), (60 bytes).
    Removing nrf_drv_gpiote.o(i.nrf_drv_gpiote_out_task_force), (48 bytes).
    Removing nrf_drv_gpiote.o(i.nrf_drv_gpiote_out_task_trigger), (32 bytes).
    Removing nrf_drv_gpiote.o(i.nrf_drv_gpiote_out_toggle), (44 bytes).
    Removing nrf_drv_gpiote.o(i.nrf_drv_gpiote_out_uninit), (52 bytes).
    Removing nrf_drv_gpiote.o(i.nrf_drv_gpiote_uninit), (68 bytes).
    Removing nrf_drv_gpiote.o(i.nrf_gpio_cfg_default), (24 bytes).
    Removing nrf_drv_gpiote.o(i.nrf_gpio_pin_clear), (16 bytes).
    Removing nrf_drv_gpiote.o(i.nrf_gpio_pin_set), (16 bytes).
    Removing nrf_drv_gpiote.o(i.nrf_gpiote_te_default), (16 bytes).
    Removing nrf_drv_uart.o(.rev16_text), (4 bytes).
    Removing nrf_drv_uart.o(.revsh_text), (4 bytes).
    Removing nrf_drv_uart.o(.rrx_text), (6 bytes).
    Removing nrf_drv_uart.o(i.apply_config), (188 bytes).
    Removing nrf_drv_uart.o(i.nrf_drv_uart_errorsrc_get), (60 bytes).
    Removing nrf_drv_uart.o(i.nrf_drv_uart_init), (228 bytes).
    Removing nrf_drv_uart.o(i.nrf_drv_uart_rx), (176 bytes).
    Removing nrf_drv_uart.o(i.nrf_drv_uart_rx_abort), (48 bytes).
    Removing nrf_drv_uart.o(i.nrf_drv_uart_rx_disable), (32 bytes).
    Removing nrf_drv_uart.o(i.nrf_drv_uart_rx_enable), (32 bytes).
    Removing nrf_drv_uart.o(i.nrf_drv_uart_rx_for_uart), (180 bytes).
    Removing nrf_drv_uart.o(i.nrf_drv_uart_rx_for_uarte), (180 bytes).
    Removing nrf_drv_uart.o(i.nrf_drv_uart_tx), (72 bytes).
    Removing nrf_drv_uart.o(i.nrf_drv_uart_tx_abort), (96 bytes).
    Removing nrf_drv_uart.o(i.nrf_drv_uart_tx_for_uart), (140 bytes).
    Removing nrf_drv_uart.o(i.nrf_drv_uart_tx_for_uarte), (112 bytes).
    Removing nrf_drv_uart.o(i.nrf_drv_uart_tx_in_progress), (20 bytes).
    Removing nrf_drv_uart.o(i.nrf_drv_uart_uninit), (128 bytes).
    Removing nrf_drv_uart.o(i.nrf_gpio_cfg), (36 bytes).
    Removing nrf_drv_uart.o(i.nrf_gpio_cfg_default), (24 bytes).
    Removing nrf_drv_uart.o(i.nrf_gpio_cfg_input), (26 bytes).
    Removing nrf_drv_uart.o(i.nrf_gpio_cfg_output), (24 bytes).
    Removing nrf_drv_uart.o(i.nrf_gpio_pin_set), (16 bytes).
    Removing nrf_drv_uart.o(i.nrf_uart_hwfc_pins_set), (10 bytes).
    Removing nrf_drv_uart.o(i.nrf_uart_int_enable), (6 bytes).
    Removing nrf_drv_uart.o(i.nrf_uart_txrx_pins_set), (10 bytes).
    Removing nrf_drv_uart.o(i.nrf_uarte_hwfc_pins_set), (12 bytes).
    Removing nrf_drv_uart.o(i.nrf_uarte_int_disable), (6 bytes).
    Removing nrf_drv_uart.o(i.nrf_uarte_int_enable), (6 bytes).
    Removing nrf_drv_uart.o(i.nrf_uarte_task_trigger), (6 bytes).
    Removing nrf_drv_uart.o(i.nrf_uarte_txrx_pins_set), (14 bytes).
    Removing nrf_drv_uart.o(i.pins_to_default), (200 bytes).
    Removing nrf_drv_uart.o(i.rx_enable), (36 bytes).
    Removing nrf_drv_uart.o(.constdata), (32 bytes).
    Removing pstorage.o(.rev16_text), (4 bytes).
    Removing pstorage.o(.revsh_text), (4 bytes).
    Removing pstorage.o(.rrx_text), (6 bytes).
    Removing app_button.o(.rev16_text), (4 bytes).
    Removing app_button.o(.revsh_text), (4 bytes).
    Removing app_button.o(.rrx_text), (6 bytes).
    Removing app_button.o(i.app_button_disable), (52 bytes).
    Removing app_button.o(i.app_button_is_pushed), (52 bytes).
    Removing app_error.o(.rev16_text), (4 bytes).
    Removing app_error.o(.revsh_text), (4 bytes).
    Removing app_error.o(.rrx_text), (6 bytes).
    Removing app_error.o(i.app_error_handler_bare), (28 bytes).
    Removing app_error_weak.o(.rev16_text), (4 bytes).
    Removing app_error_weak.o(.revsh_text), (4 bytes).
    Removing app_error_weak.o(.rrx_text), (6 bytes).
    Removing app_timer.o(.rev16_text), (4 bytes).
    Removing app_timer.o(.revsh_text), (4 bytes).
    Removing app_timer.o(.rrx_text), (6 bytes).
    Removing app_timer.o(i.app_timer_cnt_diff_compute), (22 bytes).
    Removing app_timer.o(i.app_timer_cnt_get), (14 bytes).
    Removing app_timer.o(i.app_timer_stop_all), (32 bytes).
    Removing app_timer.o(i.timer_stop_all_op_schedule), (64 bytes).
    Removing app_util_platform.o(.rev16_text), (4 bytes).
    Removing app_util_platform.o(.revsh_text), (4 bytes).
    Removing app_util_platform.o(.rrx_text), (6 bytes).
    Removing app_util_platform.o(i.__sd_nvic_irq_disable), (12 bytes).
    Removing app_util_platform.o(i.app_util_critical_region_enter), (12 bytes).
    Removing app_util_platform.o(i.app_util_critical_region_exit), (72 bytes).
    Removing app_util_platform.o(i.app_util_disable_irq), (20 bytes).
    Removing app_util_platform.o(i.app_util_enable_irq), (24 bytes).
    Removing app_util_platform.o(i.sd_nvic_critical_region_enter), (104 bytes).
    Removing app_util_platform.o(.data), (4 bytes).
    Removing fstorage.o(.rev16_text), (4 bytes).
    Removing fstorage.o(.revsh_text), (4 bytes).
    Removing fstorage.o(.rrx_text), (6 bytes).
    Removing fstorage.o(i.check_config), (32 bytes).
    Removing fstorage.o(i.erase_execute), (10 bytes).
    Removing fstorage.o(i.fs_erase), (124 bytes).
    Removing fstorage.o(i.fs_flash_page_end_addr), (24 bytes).
    Removing fstorage.o(i.fs_init), (140 bytes).
    Removing fstorage.o(i.fs_store), (132 bytes).
    Removing fstorage.o(i.fs_sys_event_handler), (108 bytes).
    Removing fstorage.o(i.on_operation_failure), (44 bytes).
    Removing fstorage.o(i.on_operation_success), (120 bytes).
    Removing fstorage.o(i.queue_advance), (52 bytes).
    Removing fstorage.o(i.queue_get_next_free), (92 bytes).
    Removing fstorage.o(i.queue_process), (108 bytes).
    Removing fstorage.o(i.queue_start), (44 bytes).
    Removing fstorage.o(i.send_event), (86 bytes).
    Removing fstorage.o(i.store_execute), (50 bytes).
    Removing fstorage.o(.data), (2 bytes).
    Removing nrf_assert.o(.rev16_text), (4 bytes).
    Removing nrf_assert.o(.revsh_text), (4 bytes).
    Removing nrf_assert.o(.rrx_text), (6 bytes).
    Removing nrf_log.o(.rev16_text), (4 bytes).
    Removing nrf_log.o(.revsh_text), (4 bytes).
    Removing nrf_log.o(.rrx_text), (6 bytes).
    Removing nrf_log.o(i.log_hex), (72 bytes).
    Removing nrf_log.o(i.log_hex_char), (64 bytes).
    Removing nrf_log.o(i.log_uart_init), (92 bytes).
    Removing nrf_log.o(i.log_uart_printf), (26 bytes).
    Removing nrf_log.o(i.log_uart_read_input), (48 bytes).
    Removing nrf_log.o(i.log_uart_write_hex), (62 bytes).
    Removing nrf_log.o(i.log_uart_write_hex_char), (50 bytes).
    Removing nrf_log.o(i.uart_error_cb), (104 bytes).
    Removing nrf_log.o(.bss), (523 bytes).
    Removing nrf_log.o(.constdata), (12 bytes).
    Removing nrf_log.o(.data), (7 bytes).
    Removing retarget.o(.rev16_text), (4 bytes).
    Removing retarget.o(.revsh_text), (4 bytes).
    Removing retarget.o(.rrx_text), (6 bytes).
    Removing retarget.o(i.fgetc), (22 bytes).
    Removing retarget.o(i.fputc), (16 bytes).
    Removing retarget.o(.data), (8 bytes).
    Removing sensorsim.o(i.sensorsim_decrement), (32 bytes).
    Removing sensorsim.o(i.sensorsim_increment), (32 bytes).
    Removing sensorsim.o(i.sensorsim_init), (24 bytes).
    Removing sensorsim.o(i.sensorsim_measure), (32 bytes).
    Removing softdevice_handler.o(.rev16_text), (4 bytes).
    Removing softdevice_handler.o(.revsh_text), (4 bytes).
    Removing softdevice_handler.o(.rrx_text), (6 bytes).
    Removing softdevice_handler.o(i.softdevice_handler_isEnabled), (12 bytes).
    Removing softdevice_handler.o(i.softdevice_handler_sd_disable), (28 bytes).
    Removing arm_startup_nrf52.o(HEAP), (8192 bytes).
    Removing system_nrf52.o(.rev16_text), (4 bytes).
    Removing system_nrf52.o(.revsh_text), (4 bytes).
    Removing system_nrf52.o(.rrx_text), (6 bytes).
    Removing dadd.o(.text), (334 bytes).
    Removing dmul.o(.text), (228 bytes).
    Removing ddiv.o(.text), (222 bytes).
    Removing dfixul.o(.text), (48 bytes).
    Removing cdrcmple.o(.text), (48 bytes).
    Removing depilogue.o(.text), (186 bytes).
    Removing nrf_log.o(i.log_uart_write_string), (22 bytes).
    Removing nrf_log.o(i.log_uart_write_string_many), (42 bytes).
    Removing nrf_log.o(i.log_uart_has_input), (40 bytes).

225 unused section(s) (total 20506 bytes) removed from the image.

==============================================================================

Image Symbol Table

    Local Symbols

    Symbol Name                              Value     Ov Type        Size  Object(Section)

    ../clib/microlib/division.c              0x00000000   Number         0  uidiv.o ABSOLUTE
    ../clib/microlib/division.c              0x00000000   Number         0  uldiv.o ABSOLUTE
    ../clib/microlib/init/entry.s            0x00000000   Number         0  entry7b.o ABSOLUTE
    ../clib/microlib/init/entry.s            0x00000000   Number         0  entry8b.o ABSOLUTE
    ../clib/microlib/init/entry.s            0x00000000   Number         0  entry.o ABSOLUTE
    ../clib/microlib/init/entry.s            0x00000000   Number         0  entry8a.o ABSOLUTE
    ../clib/microlib/init/entry.s            0x00000000   Number         0  entry11b.o ABSOLUTE
    ../clib/microlib/init/entry.s            0x00000000   Number         0  entry11a.o ABSOLUTE
    ../clib/microlib/init/entry.s            0x00000000   Number         0  entry10b.o ABSOLUTE
    ../clib/microlib/init/entry.s            0x00000000   Number         0  entry10a.o ABSOLUTE
    ../clib/microlib/init/entry.s            0x00000000   Number         0  entry2.o ABSOLUTE
    ../clib/microlib/init/entry.s            0x00000000   Number         0  entry9b.o ABSOLUTE
    ../clib/microlib/init/entry.s            0x00000000   Number         0  entry5.o ABSOLUTE
    ../clib/microlib/init/entry.s            0x00000000   Number         0  entry9a.o ABSOLUTE
    ../clib/microlib/init/entry.s            0x00000000   Number         0  entry7a.o ABSOLUTE
    ../clib/microlib/longlong.c              0x00000000   Number         0  llsshr.o ABSOLUTE
    ../clib/microlib/longlong.c              0x00000000   Number         0  llushr.o ABSOLUTE
    ../clib/microlib/longlong.c              0x00000000   Number         0  llshl.o ABSOLUTE
    ../clib/microlib/printf/printf.c         0x00000000   Number         0  printfa.o ABSOLUTE
    ../clib/microlib/string/memcmp.c         0x00000000   Number         0  memcmp.o ABSOLUTE
    ../clib/microlib/string/memcpy.c         0x00000000   Number         0  memcpya.o ABSOLUTE
    ../clib/microlib/string/memcpy.c         0x00000000   Number         0  memcpyb.o ABSOLUTE
    ../clib/microlib/string/memset.c         0x00000000   Number         0  memseta.o ABSOLUTE
    ../clib/microlib/string/strlen.c         0x00000000   Number         0  strlen.o ABSOLUTE
    ../clib/microlib/stubs.s                 0x00000000   Number         0  iusefp.o ABSOLUTE
    ../fplib/microlib/fpadd.c                0x00000000   Number         0  dadd.o ABSOLUTE
    ../fplib/microlib/fpdiv.c                0x00000000   Number         0  ddiv.o ABSOLUTE
    ../fplib/microlib/fpepilogue.c           0x00000000   Number         0  depilogue.o ABSOLUTE
    ../fplib/microlib/fpfix.c                0x00000000   Number         0  dfixul.o ABSOLUTE
    ../fplib/microlib/fpmul.c                0x00000000   Number         0  dmul.o ABSOLUTE
    ..\..\..\..\..\..\components\ble\ble_advertising\ble_advertising.c 0x00000000   Number         0  ble_advertising.o ABSOLUTE
    ..\..\..\..\..\..\components\ble\common\ble_advdata.c 0x00000000   Number         0  ble_advdata.o ABSOLUTE
    ..\..\..\..\..\..\components\ble\common\ble_conn_params.c 0x00000000   Number         0  ble_conn_params.o ABSOLUTE
    ..\..\..\..\..\..\components\ble\common\ble_srv_common.c 0x00000000   Number         0  ble_srv_common.o ABSOLUTE
    ..\..\..\..\..\..\components\ble\device_manager\device_manager_peripheral.c 0x00000000   Number         0  device_manager_peripheral.o ABSOLUTE
    ..\..\..\..\..\..\components\drivers_nrf\common\nrf_drv_common.c 0x00000000   Number         0  nrf_drv_common.o ABSOLUTE
    ..\..\..\..\..\..\components\drivers_nrf\delay\nrf_delay.c 0x00000000   Number         0  nrf_delay.o ABSOLUTE
    ..\..\..\..\..\..\components\drivers_nrf\gpiote\nrf_drv_gpiote.c 0x00000000   Number         0  nrf_drv_gpiote.o ABSOLUTE
    ..\..\..\..\..\..\components\drivers_nrf\pstorage\pstorage.c 0x00000000   Number         0  pstorage.o ABSOLUTE
    ..\..\..\..\..\..\components\drivers_nrf\uart\nrf_drv_uart.c 0x00000000   Number         0  nrf_drv_uart.o ABSOLUTE
    ..\..\..\..\..\..\components\libraries\button\app_button.c 0x00000000   Number         0  app_button.o ABSOLUTE
    ..\..\..\..\..\..\components\libraries\fstorage\fstorage.c 0x00000000   Number         0  fstorage.o ABSOLUTE
    ..\..\..\..\..\..\components\libraries\sensorsim\sensorsim.c 0x00000000   Number         0  sensorsim.o ABSOLUTE
    ..\..\..\..\..\..\components\libraries\timer\app_timer.c 0x00000000   Number         0  app_timer.o ABSOLUTE
    ..\..\..\..\..\..\components\libraries\trace\app_trace.c 0x00000000   Number         0  app_trace.o ABSOLUTE
    ..\..\..\..\..\..\components\libraries\uart\app_uart.c 0x00000000   Number         0  app_uart.o ABSOLUTE
    ..\..\..\..\..\..\components\libraries\uart\retarget.c 0x00000000   Number         0  retarget.o ABSOLUTE
    ..\..\..\..\..\..\components\libraries\util\app_error.c 0x00000000   Number         0  app_error.o ABSOLUTE
    ..\..\..\..\..\..\components\libraries\util\app_error_weak.c 0x00000000   Number         0  app_error_weak.o ABSOLUTE
    ..\..\..\..\..\..\components\libraries\util\app_util_platform.c 0x00000000   Number         0  app_util_platform.o ABSOLUTE
    ..\..\..\..\..\..\components\libraries\util\nrf_assert.c 0x00000000   Number         0  nrf_assert.o ABSOLUTE
    ..\..\..\..\..\..\components\libraries\util\nrf_log.c 0x00000000   Number         0  nrf_log.o ABSOLUTE
    ..\..\..\..\..\..\components\softdevice\common\softdevice_handler\softdevice_handler.c 0x00000000   Number         0  softdevice_handler.o ABSOLUTE
    ..\..\..\..\..\bsp\bsp.c                 0x00000000   Number         0  bsp.o ABSOLUTE
    ..\..\..\..\..\bsp\bsp_btn_ble.c         0x00000000   Number         0  bsp_btn_ble.o ABSOLUTE
    ..\..\..\main.c                          0x00000000   Number         0  main.o ABSOLUTE
    ..\\..\\..\\..\\..\\..\\components\\ble\\ble_advertising\\ble_advertising.c 0x00000000   Number         0  ble_advertising.o ABSOLUTE
    ..\\..\\..\\..\\..\\..\\components\\ble\\common\\ble_advdata.c 0x00000000   Number         0  ble_advdata.o ABSOLUTE
    ..\\..\\..\\..\\..\\..\\components\\ble\\common\\ble_conn_params.c 0x00000000   Number         0  ble_conn_params.o ABSOLUTE
    ..\\..\\..\\..\\..\\..\\components\\ble\\common\\ble_srv_common.c 0x00000000   Number         0  ble_srv_common.o ABSOLUTE
    ..\\..\\..\\..\\..\\..\\components\\ble\\device_manager\\device_manager_peripheral.c 0x00000000   Number         0  device_manager_peripheral.o ABSOLUTE
    ..\\..\\..\\..\\..\\..\\components\\drivers_nrf\\common\\nrf_drv_common.c 0x00000000   Number         0  nrf_drv_common.o ABSOLUTE
    ..\\..\\..\\..\\..\\..\\components\\drivers_nrf\\delay\\nrf_delay.c 0x00000000   Number         0  nrf_delay.o ABSOLUTE
    ..\\..\\..\\..\\..\\..\\components\\drivers_nrf\\gpiote\\nrf_drv_gpiote.c 0x00000000   Number         0  nrf_drv_gpiote.o ABSOLUTE
    ..\\..\\..\\..\\..\\..\\components\\drivers_nrf\\pstorage\\pstorage.c 0x00000000   Number         0  pstorage.o ABSOLUTE
    ..\\..\\..\\..\\..\\..\\components\\drivers_nrf\\uart\\nrf_drv_uart.c 0x00000000   Number         0  nrf_drv_uart.o ABSOLUTE
    ..\\..\\..\\..\\..\\..\\components\\libraries\\button\\app_button.c 0x00000000   Number         0  app_button.o ABSOLUTE
    ..\\..\\..\\..\\..\\..\\components\\libraries\\fstorage\\fstorage.c 0x00000000   Number         0  fstorage.o ABSOLUTE
    ..\\..\\..\\..\\..\\..\\components\\libraries\\timer\\app_timer.c 0x00000000   Number         0  app_timer.o ABSOLUTE
    ..\\..\\..\\..\\..\\..\\components\\libraries\\uart\\app_uart.c 0x00000000   Number         0  app_uart.o ABSOLUTE
    ..\\..\\..\\..\\..\\..\\components\\libraries\\uart\\retarget.c 0x00000000   Number         0  retarget.o ABSOLUTE
    ..\\..\\..\\..\\..\\..\\components\\libraries\\util\\app_error.c 0x00000000   Number         0  app_error.o ABSOLUTE
    ..\\..\\..\\..\\..\\..\\components\\libraries\\util\\app_error_weak.c 0x00000000   Number         0  app_error_weak.o ABSOLUTE
    ..\\..\\..\\..\\..\\..\\components\\libraries\\util\\app_util_platform.c 0x00000000   Number         0  app_util_platform.o ABSOLUTE
    ..\\..\\..\\..\\..\\..\\components\\libraries\\util\\nrf_assert.c 0x00000000   Number         0  nrf_assert.o ABSOLUTE
    ..\\..\\..\\..\\..\\..\\components\\libraries\\util\\nrf_log.c 0x00000000   Number         0  nrf_log.o ABSOLUTE
    ..\\..\\..\\..\\..\\..\\components\\softdevice\\common\\softdevice_handler\\softdevice_handler.c 0x00000000   Number         0  softdevice_handler.o ABSOLUTE
    ..\\..\\..\\..\\..\\bsp\\bsp.c           0x00000000   Number         0  bsp.o ABSOLUTE
    ..\\..\\..\\..\\..\\bsp\\bsp_btn_ble.c   0x00000000   Number         0  bsp_btn_ble.o ABSOLUTE
    ..\\..\\..\\main.c                       0x00000000   Number         0  main.o ABSOLUTE
    RTE\Device\nRF52832_xxAA\arm_startup_nrf52.s 0x00000000   Number         0  arm_startup_nrf52.o ABSOLUTE
    RTE\Device\nRF52832_xxAA\system_nrf52.c  0x00000000   Number         0  system_nrf52.o ABSOLUTE
    RTE\\Device\\nRF52832_xxAA\\system_nrf52.c 0x00000000   Number         0  system_nrf52.o ABSOLUTE
    cdrcmple.s                               0x00000000   Number         0  cdrcmple.o ABSOLUTE
    dc.s                                     0x00000000   Number         0  dc.o ABSOLUTE
    handlers.s                               0x00000000   Number         0  handlers.o ABSOLUTE
    init.s                                   0x00000000   Number         0  init.o ABSOLUTE
    RESET                                    0x0001c000   Section     1024  arm_startup_nrf52.o(RESET)
    .ARM.Collect$$$$00000000                 0x0001c400   Section        0  entry.o(.ARM.Collect$$$$00000000)
    .ARM.Collect$$$$00000001                 0x0001c400   Section        4  entry2.o(.ARM.Collect$$$$00000001)
    .ARM.Collect$$$$00000004                 0x0001c404   Section        4  entry5.o(.ARM.Collect$$$$00000004)
    .ARM.Collect$$$$00000008                 0x0001c408   Section        0  entry7b.o(.ARM.Collect$$$$00000008)
    .ARM.Collect$$$$0000000A                 0x0001c408   Section        0  entry8b.o(.ARM.Collect$$$$0000000A)
    .ARM.Collect$$$$0000000B                 0x0001c408   Section        8  entry9a.o(.ARM.Collect$$$$0000000B)
    .ARM.Collect$$$$0000000D                 0x0001c410   Section        0  entry10a.o(.ARM.Collect$$$$0000000D)
    .ARM.Collect$$$$0000000F                 0x0001c410   Section        0  entry11a.o(.ARM.Collect$$$$0000000F)
    .ARM.Collect$$$$00002712                 0x0001c410   Section        4  entry2.o(.ARM.Collect$$$$00002712)
    __lit__00000000                          0x0001c410   Data           4  entry2.o(.ARM.Collect$$$$00002712)
    .emb_text                                0x0001c414   Section      118  app_timer.o(.emb_text)
    $v0                                      0x0001c414   Number         0  app_timer.o(.emb_text)
    .text                                    0x0001c48c   Section       36  arm_startup_nrf52.o(.text)
    $v0                                      0x0001c48c   Number         0  arm_startup_nrf52.o(.text)
    .text                                    0x0001c4b0   Section        0  memcpya.o(.text)
    .text                                    0x0001c4d4   Section        0  memseta.o(.text)
    .text                                    0x0001c4f8   Section        0  memcmp.o(.text)
    .text                                    0x0001c514   Section       36  init.o(.text)
    i.GPIOTE_IRQHandler                      0x0001c538   Section        0  nrf_drv_gpiote.o(i.GPIOTE_IRQHandler)
    i.NVIC_ClearPendingIRQ                   0x0001c6f0   Section        0  app_timer.o(i.NVIC_ClearPendingIRQ)
    NVIC_ClearPendingIRQ                     0x0001c6f1   Thumb Code    18  app_timer.o(i.NVIC_ClearPendingIRQ)
    i.NVIC_EnableIRQ                         0x0001c708   Section        0  app_timer.o(i.NVIC_EnableIRQ)
    NVIC_EnableIRQ                           0x0001c709   Thumb Code    22  app_timer.o(i.NVIC_EnableIRQ)
    i.NVIC_SetPendingIRQ                     0x0001c720   Section        0  app_timer.o(i.NVIC_SetPendingIRQ)
    NVIC_SetPendingIRQ                       0x0001c721   Thumb Code    18  app_timer.o(i.NVIC_SetPendingIRQ)
    i.NVIC_SetPriority                       0x0001c738   Section        0  app_timer.o(i.NVIC_SetPriority)
    NVIC_SetPriority                         0x0001c739   Thumb Code    32  app_timer.o(i.NVIC_SetPriority)
    i.RTC1_IRQHandler                        0x0001c760   Section        0  app_timer.o(i.RTC1_IRQHandler)
    i.SWI0_EGU0_IRQHandler                   0x0001c794   Section        0  app_timer.o(i.SWI0_EGU0_IRQHandler)
    i.SWI2_EGU2_IRQHandler                   0x0001c79c   Section        0  softdevice_handler.o(i.SWI2_EGU2_IRQHandler)
    i.SystemCoreClockUpdate                  0x0001c7d4   Section        0  system_nrf52.o(i.SystemCoreClockUpdate)
    i.SystemInit                             0x0001c7e4   Section        0  system_nrf52.o(i.SystemInit)
    i.UARTE0_UART0_IRQHandler                0x0001ca18   Section        0  nrf_drv_uart.o(i.UARTE0_UART0_IRQHandler)
    i.__scatterload_copy                     0x0001ca30   Section       14  handlers.o(i.__scatterload_copy)
    i.__scatterload_null                     0x0001ca3e   Section        2  handlers.o(i.__scatterload_null)
    i.__scatterload_zeroinit                 0x0001ca40   Section       14  handlers.o(i.__scatterload_zeroinit)
    i.adv_data_encode                        0x0001ca4e   Section        0  ble_advdata.o(i.adv_data_encode)
    i.advdata_check                          0x0001cc14   Section        0  ble_advdata.o(i.advdata_check)
    advdata_check                            0x0001cc15   Thumb Code    18  ble_advdata.o(i.advdata_check)
    i.advertising_buttons_configure          0x0001cc26   Section        0  bsp_btn_ble.o(i.advertising_buttons_configure)
    advertising_buttons_configure            0x0001cc27   Thumb Code    84  bsp_btn_ble.o(i.advertising_buttons_configure)
    i.advertising_init                       0x0001cc7c   Section        0  main.o(i.advertising_init)
    advertising_init                         0x0001cc7d   Thumb Code    94  main.o(i.advertising_init)
    i.alert_timer_handler                    0x0001ccf0   Section        0  bsp.o(i.alert_timer_handler)
    alert_timer_handler                      0x0001ccf1   Thumb Code    32  bsp.o(i.alert_timer_handler)
    i.app_button_enable                      0x0001cd14   Section        0  app_button.o(i.app_button_enable)
    i.app_button_init                        0x0001cd40   Section        0  app_button.o(i.app_button_init)
    i.app_error_fault_handler                0x0001cde8   Section        0  app_error_weak.o(i.app_error_fault_handler)
    i.app_error_handler                      0x0001ce02   Section        0  app_error.o(i.app_error_handler)
    i.app_error_save_and_stop                0x0001ce24   Section        0  app_error.o(i.app_error_save_and_stop)
    i.app_evt_notify                         0x0001ceac   Section        0  device_manager_peripheral.o(i.app_evt_notify)
    app_evt_notify                           0x0001cead   Thumb Code    26  device_manager_peripheral.o(i.app_evt_notify)
    i.app_notify                             0x0001cecc   Section        0  pstorage.o(i.app_notify)
    app_notify                               0x0001cecd   Thumb Code    40  pstorage.o(i.app_notify)
    i.app_notify_error_state_transit         0x0001cefc   Section        0  pstorage.o(i.app_notify_error_state_transit)
    app_notify_error_state_transit           0x0001cefd   Thumb Code    34  pstorage.o(i.app_notify_error_state_transit)
    i.app_timer_create                       0x0001cf24   Section        0  app_timer.o(i.app_timer_create)
    i.app_timer_init                         0x0001cf60   Section        0  app_timer.o(i.app_timer_init)
    i.app_timer_start                        0x0001d018   Section        0  app_timer.o(i.app_timer_start)
    i.app_timer_stop                         0x0001d070   Section        0  app_timer.o(i.app_timer_stop)
    i.appearance_encode                      0x0001d0a4   Section        0  ble_advdata.o(i.appearance_encode)
    appearance_encode                        0x0001d0a5   Thumb Code    82  ble_advdata.o(i.appearance_encode)
    i.ble_advdata_set                        0x0001d0f6   Section        0  ble_advdata.o(i.ble_advdata_set)
    i.ble_advertising_init                   0x0001d18c   Section        0  ble_advertising.o(i.ble_advertising_init)
    i.ble_advertising_on_ble_evt             0x0001d308   Section        0  ble_advertising.o(i.ble_advertising_on_ble_evt)
    i.ble_advertising_on_sys_evt             0x0001d400   Section        0  ble_advertising.o(i.ble_advertising_on_sys_evt)
    i.ble_advertising_peer_address_clear     0x0001d44c   Section        0  ble_advertising.o(i.ble_advertising_peer_address_clear)
    ble_advertising_peer_address_clear       0x0001d44d   Thumb Code    12  ble_advertising.o(i.ble_advertising_peer_address_clear)
    i.ble_advertising_restart_without_whitelist 0x0001d45c   Section        0  ble_advertising.o(i.ble_advertising_restart_without_whitelist)
    i.ble_advertising_start                  0x0001d4d4   Section        0  ble_advertising.o(i.ble_advertising_start)
    i.ble_conn_params_init                   0x0001d75c   Section        0  ble_conn_params.o(i.ble_conn_params_init)
    i.ble_conn_params_on_ble_evt             0x0001d7cc   Section        0  ble_conn_params.o(i.ble_conn_params_on_ble_evt)
    i.ble_device_addr_encode                 0x0001d80a   Section        0  ble_advdata.o(i.ble_device_addr_encode)
    ble_device_addr_encode                   0x0001d80b   Thumb Code   116  ble_advdata.o(i.ble_device_addr_encode)
    i.ble_evt_dispatch                       0x0001d87e   Section        0  main.o(i.ble_evt_dispatch)
    ble_evt_dispatch                         0x0001d87f   Thumb Code    36  main.o(i.ble_evt_dispatch)
    i.ble_stack_init                         0x0001d8a4   Section        0  main.o(i.ble_stack_init)
    ble_stack_init                           0x0001d8a5   Thumb Code   226  main.o(i.ble_stack_init)
    i.bond_data_load                         0x0001d9ac   Section        0  device_manager_peripheral.o(i.bond_data_load)
    i.bsp_btn_ble_init                       0x0001d9fc   Section        0  bsp_btn_ble.o(i.bsp_btn_ble_init)
    i.bsp_btn_ble_on_ble_evt                 0x0001da34   Section        0  bsp_btn_ble.o(i.bsp_btn_ble_on_ble_evt)
    i.bsp_btn_ble_sleep_mode_prepare         0x0001daac   Section        0  bsp_btn_ble.o(i.bsp_btn_ble_sleep_mode_prepare)
    i.bsp_button_event_handler               0x0001dac8   Section        0  bsp.o(i.bsp_button_event_handler)
    bsp_button_event_handler                 0x0001dac9   Thumb Code   192  bsp.o(i.bsp_button_event_handler)
    i.bsp_button_is_pressed                  0x0001dba4   Section        0  bsp.o(i.bsp_button_is_pressed)
    i.bsp_event_handler                      0x0001dbdc   Section        0  main.o(i.bsp_event_handler)
    i.bsp_event_to_button_action_assign      0x0001dc58   Section        0  bsp.o(i.bsp_event_to_button_action_assign)
    i.bsp_indication_set                     0x0001dcb4   Section        0  bsp.o(i.bsp_indication_set)
    i.bsp_init                               0x0001dcd4   Section        0  bsp.o(i.bsp_init)
    i.bsp_led_indication                     0x0001dda4   Section        0  bsp.o(i.bsp_led_indication)
    bsp_led_indication                       0x0001dda5   Thumb Code  1414  bsp.o(i.bsp_led_indication)
    i.bsp_wakeup_buttons_set                 0x0001e340   Section        0  bsp.o(i.bsp_wakeup_buttons_set)
    i.button_timer_handler                   0x0001e390   Section        0  bsp.o(i.button_timer_handler)
    button_timer_handler                     0x0001e391   Thumb Code    14  bsp.o(i.button_timer_handler)
    i.buttons_leds_init                      0x0001e3a0   Section        0  main.o(i.buttons_leds_init)
    buttons_leds_init                        0x0001e3a1   Thumb Code    94  main.o(i.buttons_leds_init)
    i.channel_free                           0x0001e414   Section        0  nrf_drv_gpiote.o(i.channel_free)
    channel_free                             0x0001e415   Thumb Code    26  nrf_drv_gpiote.o(i.channel_free)
    i.channel_handler_get                    0x0001e434   Section        0  nrf_drv_gpiote.o(i.channel_handler_get)
    channel_handler_get                      0x0001e435   Thumb Code    10  nrf_drv_gpiote.o(i.channel_handler_get)
    i.channel_port_alloc                     0x0001e444   Section        0  nrf_drv_gpiote.o(i.channel_port_alloc)
    channel_port_alloc                       0x0001e445   Thumb Code   122  nrf_drv_gpiote.o(i.channel_port_alloc)
    i.channel_port_get                       0x0001e4c4   Section        0  nrf_drv_gpiote.o(i.channel_port_get)
    channel_port_get                         0x0001e4c5   Thumb Code     8  nrf_drv_gpiote.o(i.channel_port_get)
    i.clear_operation_execute                0x0001e4d0   Section        0  pstorage.o(i.clear_operation_execute)
    clear_operation_execute                  0x0001e4d1   Thumb Code   238  pstorage.o(i.clear_operation_execute)
    i.clear_post_processing_run              0x0001e5d4   Section        0  pstorage.o(i.clear_post_processing_run)
    clear_post_processing_run                0x0001e5d5   Thumb Code    36  pstorage.o(i.clear_post_processing_run)
    i.cmd_process                            0x0001e5fc   Section        0  pstorage.o(i.cmd_process)
    cmd_process                              0x0001e5fd   Thumb Code    64  pstorage.o(i.cmd_process)
    i.cmd_queue_dequeue                      0x0001e644   Section        0  pstorage.o(i.cmd_queue_dequeue)
    cmd_queue_dequeue                        0x0001e645   Thumb Code    14  pstorage.o(i.cmd_queue_dequeue)
    i.cmd_queue_element_init                 0x0001e658   Section        0  pstorage.o(i.cmd_queue_element_init)
    cmd_queue_element_init                   0x0001e659   Thumb Code    76  pstorage.o(i.cmd_queue_element_init)
    i.cmd_queue_enqueue                      0x0001e6a8   Section        0  pstorage.o(i.cmd_queue_enqueue)
    cmd_queue_enqueue                        0x0001e6a9   Thumb Code   148  pstorage.o(i.cmd_queue_enqueue)
    i.cmd_queue_init                         0x0001e744   Section        0  pstorage.o(i.cmd_queue_init)
    cmd_queue_init                           0x0001e745   Thumb Code    28  pstorage.o(i.cmd_queue_init)
    i.command_end_procedure_run              0x0001e764   Section        0  pstorage.o(i.command_end_procedure_run)
    command_end_procedure_run                0x0001e765   Thumb Code    36  pstorage.o(i.command_end_procedure_run)
    i.command_queue_element_consume          0x0001e78c   Section        0  pstorage.o(i.command_queue_element_consume)
    command_queue_element_consume            0x0001e78d   Thumb Code    40  pstorage.o(i.command_queue_element_consume)
    i.compare_reg_update                     0x0001e7b8   Section        0  app_timer.o(i.compare_reg_update)
    compare_reg_update                       0x0001e7b9   Thumb Code   132  app_timer.o(i.compare_reg_update)
    i.conn_int_check                         0x0001e848   Section        0  ble_advdata.o(i.conn_int_check)
    conn_int_check                           0x0001e849   Thumb Code    90  ble_advdata.o(i.conn_int_check)
    i.conn_int_encode                        0x0001e8a2   Section        0  ble_advdata.o(i.conn_int_encode)
    conn_int_encode                          0x0001e8a3   Thumb Code   104  ble_advdata.o(i.conn_int_encode)
    i.conn_params_error_handler              0x0001e90c   Section        0  main.o(i.conn_params_error_handler)
    conn_params_error_handler                0x0001e90d   Thumb Code    20  main.o(i.conn_params_error_handler)
    i.conn_params_init                       0x0001e930   Section        0  main.o(i.conn_params_init)
    conn_params_init                         0x0001e931   Thumb Code    86  main.o(i.conn_params_init)
    i.conn_params_negotiation                0x0001e9a0   Section        0  ble_conn_params.o(i.conn_params_negotiation)
    conn_params_negotiation                  0x0001e9a1   Thumb Code   112  ble_conn_params.o(i.conn_params_negotiation)
    i.connection_buttons_configure           0x0001ea24   Section        0  bsp_btn_ble.o(i.connection_buttons_configure)
    connection_buttons_configure             0x0001ea25   Thumb Code    84  bsp_btn_ble.o(i.connection_buttons_configure)
    i.connection_instance_find               0x0001ea78   Section        0  device_manager_peripheral.o(i.connection_instance_find)
    connection_instance_find                 0x0001ea79   Thumb Code    68  device_manager_peripheral.o(i.connection_instance_find)
    i.connection_instance_init               0x0001eac0   Section        0  device_manager_peripheral.o(i.connection_instance_init)
    connection_instance_init                 0x0001eac1   Thumb Code    60  device_manager_peripheral.o(i.connection_instance_init)
    i.data_page_erase_state_run              0x0001eb00   Section        0  pstorage.o(i.data_page_erase_state_run)
    data_page_erase_state_run                0x0001eb01   Thumb Code   106  pstorage.o(i.data_page_erase_state_run)
    i.data_to_swap_write_state_run           0x0001eb7c   Section        0  pstorage.o(i.data_to_swap_write_state_run)
    data_to_swap_write_state_run             0x0001eb7d   Thumb Code    48  pstorage.o(i.data_to_swap_write_state_run)
    i.detection_delay_timeout_handler        0x0001ebb0   Section        0  app_button.o(i.detection_delay_timeout_handler)
    detection_delay_timeout_handler          0x0001ebb1   Thumb Code   124  app_button.o(i.detection_delay_timeout_handler)
    i.device_context_store                   0x0001ec3c   Section        0  device_manager_peripheral.o(i.device_context_store)
    device_context_store                     0x0001ec3d   Thumb Code   186  device_manager_peripheral.o(i.device_context_store)
    i.device_instance_allocate               0x0001ed1c   Section        0  device_manager_peripheral.o(i.device_instance_allocate)
    device_instance_allocate                 0x0001ed1d   Thumb Code   130  device_manager_peripheral.o(i.device_instance_allocate)
    i.device_instance_find                   0x0001eda4   Section        0  device_manager_peripheral.o(i.device_instance_find)
    device_instance_find                     0x0001eda5   Thumb Code    84  device_manager_peripheral.o(i.device_instance_find)
    i.device_instance_free                   0x0001edfc   Section        0  device_manager_peripheral.o(i.device_instance_free)
    device_instance_free                     0x0001edfd   Thumb Code    40  device_manager_peripheral.o(i.device_instance_free)
    i.device_manager_evt_handler             0x0001ee28   Section        0  main.o(i.device_manager_evt_handler)
    device_manager_evt_handler               0x0001ee29   Thumb Code    40  main.o(i.device_manager_evt_handler)
    i.device_manager_init                    0x0001ee60   Section        0  main.o(i.device_manager_init)
    device_manager_init                      0x0001ee61   Thumb Code   212  main.o(i.device_manager_init)
    i.dm_ble_evt_handler                     0x0001ef4c   Section        0  device_manager_peripheral.o(i.dm_ble_evt_handler)
    i.dm_handle_initialize                   0x0001f604   Section        0  device_manager_peripheral.o(i.dm_handle_initialize)
    i.dm_init                                0x0001f61c   Section        0  device_manager_peripheral.o(i.dm_init)
    i.dm_pstorage_cb_handler                 0x0001f724   Section        0  device_manager_peripheral.o(i.dm_pstorage_cb_handler)
    dm_pstorage_cb_handler                   0x0001f725   Thumb Code   560  device_manager_peripheral.o(i.dm_pstorage_cb_handler)
    i.dm_register                            0x0001f980   Section        0  device_manager_peripheral.o(i.dm_register)
    i.elapsed_ticks_acquire                  0x0001fa30   Section        0  app_timer.o(i.elapsed_ticks_acquire)
    elapsed_ticks_acquire                    0x0001fa31   Thumb Code    82  app_timer.o(i.elapsed_ticks_acquire)
    i.erase_sub_state_sm_run                 0x0001fa94   Section        0  pstorage.o(i.erase_sub_state_sm_run)
    erase_sub_state_sm_run                   0x0001fa95   Thumb Code    50  pstorage.o(i.erase_sub_state_sm_run)
    i.errata_16                              0x0001fad4   Section        0  system_nrf52.o(i.errata_16)
    errata_16                                0x0001fad5   Thumb Code    42  system_nrf52.o(i.errata_16)
    i.errata_31                              0x0001fb04   Section        0  system_nrf52.o(i.errata_31)
    errata_31                                0x0001fb05   Thumb Code    78  system_nrf52.o(i.errata_31)
    i.errata_32                              0x0001fb58   Section        0  system_nrf52.o(i.errata_32)
    errata_32                                0x0001fb59   Thumb Code    42  system_nrf52.o(i.errata_32)
    i.errata_36                              0x0001fb88   Section        0  system_nrf52.o(i.errata_36)
    errata_36                                0x0001fb89   Thumb Code    78  system_nrf52.o(i.errata_36)
    i.errata_37                              0x0001fbdc   Section        0  system_nrf52.o(i.errata_37)
    errata_37                                0x0001fbdd   Thumb Code    42  system_nrf52.o(i.errata_37)
    i.errata_57                              0x0001fc0c   Section        0  system_nrf52.o(i.errata_57)
    errata_57                                0x0001fc0d   Thumb Code    42  system_nrf52.o(i.errata_57)
    i.errata_66                              0x0001fc3c   Section        0  system_nrf52.o(i.errata_66)
    errata_66                                0x0001fc3d   Thumb Code    42  system_nrf52.o(i.errata_66)
    i.expired_timers_handler                 0x0001fc6c   Section        0  app_timer.o(i.expired_timers_handler)
    expired_timers_handler                   0x0001fc6d   Thumb Code    84  app_timer.o(i.expired_timers_handler)
    i.flags_encode                           0x0001fcc4   Section        0  ble_advdata.o(i.flags_encode)
    flags_encode                             0x0001fcc5   Thumb Code    54  ble_advdata.o(i.flags_encode)
    i.flash_access_in_progress               0x0001fcfa   Section        0  ble_advertising.o(i.flash_access_in_progress)
    flash_access_in_progress                 0x0001fcfb   Thumb Code    54  ble_advertising.o(i.flash_access_in_progress)
    i.flash_api_err_code_process             0x0001fd30   Section        0  pstorage.o(i.flash_api_err_code_process)
    flash_api_err_code_process               0x0001fd31   Thumb Code    40  pstorage.o(i.flash_api_err_code_process)
    i.flash_operation_failure_run            0x0001fd5c   Section        0  pstorage.o(i.flash_operation_failure_run)
    flash_operation_failure_run              0x0001fd5d   Thumb Code    54  pstorage.o(i.flash_operation_failure_run)
    i.flash_operation_success_run            0x0001fda0   Section        0  pstorage.o(i.flash_operation_success_run)
    flash_operation_success_run              0x0001fda1   Thumb Code    44  pstorage.o(i.flash_operation_success_run)
    i.flash_page_erase                       0x0001fdd0   Section        0  pstorage.o(i.flash_page_erase)
    flash_page_erase                         0x0001fdd1   Thumb Code    16  pstorage.o(i.flash_page_erase)
    i.flash_write                            0x0001fde0   Section        0  pstorage.o(i.flash_write)
    flash_write                              0x0001fde1   Thumb Code    28  pstorage.o(i.flash_write)
    i.fs_queued_op_count_get                 0x0001fdfc   Section        0  fstorage.o(i.fs_queued_op_count_get)
    i.gap_params_init                        0x0001fe14   Section        0  main.o(i.gap_params_init)
    gap_params_init                          0x0001fe15   Thumb Code   150  main.o(i.gap_params_init)
    i.gattc_context_apply                    0x0001fec4   Section        0  device_manager_peripheral.o(i.gattc_context_apply)
    gattc_context_apply                      0x0001fec5   Thumb Code     6  device_manager_peripheral.o(i.gattc_context_apply)
    i.gattc_context_load                     0x0001feca   Section        0  device_manager_peripheral.o(i.gattc_context_load)
    gattc_context_load                       0x0001fecb   Thumb Code     6  device_manager_peripheral.o(i.gattc_context_load)
    i.gattc_context_store                    0x0001fed0   Section        0  device_manager_peripheral.o(i.gattc_context_store)
    gattc_context_store                      0x0001fed1   Thumb Code     6  device_manager_peripheral.o(i.gattc_context_store)
    i.gatts_context_apply                    0x0001fed8   Section        0  device_manager_peripheral.o(i.gatts_context_apply)
    gatts_context_apply                      0x0001fed9   Thumb Code   238  device_manager_peripheral.o(i.gatts_context_apply)
    i.gatts_context_load                     0x0001ffd0   Section        0  device_manager_peripheral.o(i.gatts_context_load)
    gatts_context_load                       0x0001ffd1   Thumb Code    70  device_manager_peripheral.o(i.gatts_context_load)
    i.gatts_context_store                    0x0002001c   Section        0  device_manager_peripheral.o(i.gatts_context_store)
    gatts_context_store                      0x0002001d   Thumb Code   224  device_manager_peripheral.o(i.gatts_context_store)
    i.gattsc_context_apply                   0x0002010c   Section        0  device_manager_peripheral.o(i.gattsc_context_apply)
    gattsc_context_apply                     0x0002010d   Thumb Code    24  device_manager_peripheral.o(i.gattsc_context_apply)
    i.gattsc_context_load                    0x00020124   Section        0  device_manager_peripheral.o(i.gattsc_context_load)
    gattsc_context_load                      0x00020125   Thumb Code    28  device_manager_peripheral.o(i.gattsc_context_load)
    i.gattsc_context_store                   0x00020140   Section        0  device_manager_peripheral.o(i.gattsc_context_store)
    gattsc_context_store                     0x00020141   Thumb Code    28  device_manager_peripheral.o(i.gattsc_context_store)
    i.gpiote_event_handler                   0x0002015c   Section        0  app_button.o(i.gpiote_event_handler)
    gpiote_event_handler                     0x0002015d   Thumb Code   110  app_button.o(i.gpiote_event_handler)
    i.head_restore_state_run                 0x000201dc   Section        0  pstorage.o(i.head_restore_state_run)
    head_restore_state_run                   0x000201dd   Thumb Code    90  pstorage.o(i.head_restore_state_run)
    i.intern_softdevice_events_execute       0x00020244   Section        0  softdevice_handler.o(i.intern_softdevice_events_execute)
    i.is_conn_params_ok                      0x000202f4   Section        0  ble_conn_params.o(i.is_conn_params_ok)
    is_conn_params_ok                        0x000202f5   Thumb Code    30  ble_conn_params.o(i.is_conn_params_ok)
    i.is_page_erase_required                 0x00020318   Section        0  pstorage.o(i.is_page_erase_required)
    is_page_erase_required                   0x00020319   Thumb Code    74  pstorage.o(i.is_page_erase_required)
    i.is_tail_data_page_swap_required        0x00020370   Section        0  pstorage.o(i.is_tail_data_page_swap_required)
    is_tail_data_page_swap_required          0x00020371   Thumb Code    66  pstorage.o(i.is_tail_data_page_swap_required)
    i.is_word_aligned                        0x000203c0   Section        0  pstorage.o(i.is_word_aligned)
    is_word_aligned                          0x000203c1   Thumb Code    16  pstorage.o(i.is_word_aligned)
    i.le_role_encode                         0x000203d0   Section        0  ble_advdata.o(i.le_role_encode)
    le_role_encode                           0x000203d1   Thumb Code   106  ble_advdata.o(i.le_role_encode)
    i.leds_timer_handler                     0x0002043c   Section        0  bsp.o(i.leds_timer_handler)
    leds_timer_handler                       0x0002043d   Thumb Code    24  bsp.o(i.leds_timer_handler)
    i.list_deletions_handler                 0x0002045c   Section        0  app_timer.o(i.list_deletions_handler)
    list_deletions_handler                   0x0002045d   Thumb Code   140  app_timer.o(i.list_deletions_handler)
    i.list_insertions_handler                0x000204f4   Section        0  app_timer.o(i.list_insertions_handler)
    list_insertions_handler                  0x000204f5   Thumb Code   242  app_timer.o(i.list_insertions_handler)
    i.main                                   0x00020600   Section        0  main.o(i.main)
    i.main_state_err_busy_process            0x0002065c   Section        0  pstorage.o(i.main_state_err_busy_process)
    main_state_err_busy_process              0x0002065d   Thumb Code    24  pstorage.o(i.main_state_err_busy_process)
    i.manuf_specific_data_encode             0x0002067c   Section        0  ble_advdata.o(i.manuf_specific_data_encode)
    manuf_specific_data_encode               0x0002067d   Thumb Code   118  ble_advdata.o(i.manuf_specific_data_encode)
    i.name_encode                            0x000206f2   Section        0  ble_advdata.o(i.name_encode)
    name_encode                              0x000206f3   Thumb Code   194  ble_advdata.o(i.name_encode)
    i.no_service_context_apply               0x000207b4   Section        0  device_manager_peripheral.o(i.no_service_context_apply)
    no_service_context_apply                 0x000207b5   Thumb Code     6  device_manager_peripheral.o(i.no_service_context_apply)
    i.no_service_context_load                0x000207ba   Section        0  device_manager_peripheral.o(i.no_service_context_load)
    no_service_context_load                  0x000207bb   Thumb Code     6  device_manager_peripheral.o(i.no_service_context_load)
    i.no_service_context_store               0x000207c0   Section        0  device_manager_peripheral.o(i.no_service_context_store)
    no_service_context_store                 0x000207c1   Thumb Code     6  device_manager_peripheral.o(i.no_service_context_store)
    i.nrf_drv_common_irq_enable              0x000207c8   Section        0  nrf_drv_common.o(i.nrf_drv_common_irq_enable)
    i.nrf_drv_gpiote_in_event_enable         0x00020828   Section        0  nrf_drv_gpiote.o(i.nrf_drv_gpiote_in_event_enable)
    i.nrf_drv_gpiote_in_init                 0x000208e0   Section        0  nrf_drv_gpiote.o(i.nrf_drv_gpiote_in_init)
    i.nrf_drv_gpiote_in_is_set               0x000209b8   Section        0  nrf_drv_gpiote.o(i.nrf_drv_gpiote_in_is_set)
    i.nrf_drv_gpiote_init                    0x000209d4   Section        0  nrf_drv_gpiote.o(i.nrf_drv_gpiote_init)
    i.nrf_drv_gpiote_is_init                 0x00020a28   Section        0  nrf_drv_gpiote.o(i.nrf_drv_gpiote_is_init)
    i.nrf_gpio_cfg                           0x00020a3c   Section        0  nrf_drv_gpiote.o(i.nrf_gpio_cfg)
    nrf_gpio_cfg                             0x00020a3d   Thumb Code    30  nrf_drv_gpiote.o(i.nrf_gpio_cfg)
    i.nrf_gpio_cfg_sense_set                 0x00020a60   Section        0  nrf_drv_gpiote.o(i.nrf_gpio_cfg_sense_set)
    nrf_gpio_cfg_sense_set                   0x00020a61   Thumb Code    32  nrf_drv_gpiote.o(i.nrf_gpio_cfg_sense_set)
    i.nrf_gpiote_event_addr_get              0x00020a84   Section        0  nrf_drv_gpiote.o(i.nrf_gpiote_event_addr_get)
    nrf_gpiote_event_addr_get                0x00020a85   Thumb Code     8  nrf_drv_gpiote.o(i.nrf_gpiote_event_addr_get)
    i.nrf_gpiote_event_clear                 0x00020a90   Section        0  nrf_drv_gpiote.o(i.nrf_gpiote_event_clear)
    nrf_gpiote_event_clear                   0x00020a91   Thumb Code    28  nrf_drv_gpiote.o(i.nrf_gpiote_event_clear)
    i.nrf_gpiote_event_is_set                0x00020aac   Section        0  nrf_drv_gpiote.o(i.nrf_gpiote_event_is_set)
    nrf_gpiote_event_is_set                  0x00020aad   Thumb Code    22  nrf_drv_gpiote.o(i.nrf_gpiote_event_is_set)
    i.nrf_gpiote_int_enable                  0x00020ac4   Section        0  nrf_drv_gpiote.o(i.nrf_gpiote_int_enable)
    nrf_gpiote_int_enable                    0x00020ac5   Thumb Code     6  nrf_drv_gpiote.o(i.nrf_gpiote_int_enable)
    i.nrf_uart_errorsrc_get_and_clear        0x00020ad0   Section        0  nrf_drv_uart.o(i.nrf_uart_errorsrc_get_and_clear)
    nrf_uart_errorsrc_get_and_clear          0x00020ad1   Thumb Code    12  nrf_drv_uart.o(i.nrf_uart_errorsrc_get_and_clear)
    i.nrf_uart_event_check                   0x00020adc   Section        0  nrf_drv_uart.o(i.nrf_uart_event_check)
    nrf_uart_event_check                     0x00020add   Thumb Code    14  nrf_drv_uart.o(i.nrf_uart_event_check)
    i.nrf_uart_event_clear                   0x00020aea   Section        0  nrf_drv_uart.o(i.nrf_uart_event_clear)
    nrf_uart_event_clear                     0x00020aeb   Thumb Code     6  nrf_drv_uart.o(i.nrf_uart_event_clear)
    i.nrf_uart_int_disable                   0x00020af0   Section        0  nrf_drv_uart.o(i.nrf_uart_int_disable)
    nrf_uart_int_disable                     0x00020af1   Thumb Code     6  nrf_drv_uart.o(i.nrf_uart_int_disable)
    i.nrf_uart_int_enable_check              0x00020af6   Section        0  nrf_drv_uart.o(i.nrf_uart_int_enable_check)
    nrf_uart_int_enable_check                0x00020af7   Thumb Code    18  nrf_drv_uart.o(i.nrf_uart_int_enable_check)
    i.nrf_uart_task_trigger                  0x00020b08   Section        0  nrf_drv_uart.o(i.nrf_uart_task_trigger)
    nrf_uart_task_trigger                    0x00020b09   Thumb Code     6  nrf_drv_uart.o(i.nrf_uart_task_trigger)
    i.nrf_uarte_errorsrc_get_and_clear       0x00020b0e   Section        0  nrf_drv_uart.o(i.nrf_uarte_errorsrc_get_and_clear)
    nrf_uarte_errorsrc_get_and_clear         0x00020b0f   Thumb Code    12  nrf_drv_uart.o(i.nrf_uarte_errorsrc_get_and_clear)
    i.nrf_uarte_event_check                  0x00020b1a   Section        0  nrf_drv_uart.o(i.nrf_uarte_event_check)
    nrf_uarte_event_check                    0x00020b1b   Thumb Code    14  nrf_drv_uart.o(i.nrf_uarte_event_check)
    i.nrf_uarte_event_clear                  0x00020b28   Section        0  nrf_drv_uart.o(i.nrf_uarte_event_clear)
    nrf_uarte_event_clear                    0x00020b29   Thumb Code     6  nrf_drv_uart.o(i.nrf_uarte_event_clear)
    i.nrf_uarte_rx_amount_get                0x00020b2e   Section        0  nrf_drv_uart.o(i.nrf_uarte_rx_amount_get)
    nrf_uarte_rx_amount_get                  0x00020b2f   Thumb Code    10  nrf_drv_uart.o(i.nrf_uarte_rx_amount_get)
    i.on_adv_evt                             0x00020b38   Section        0  main.o(i.on_adv_evt)
    on_adv_evt                               0x00020b39   Thumb Code    54  main.o(i.on_adv_evt)
    i.on_ble_evt                             0x00020b80   Section        0  main.o(i.on_ble_evt)
    on_ble_evt                               0x00020b81   Thumb Code    72  main.o(i.on_ble_evt)
    i.on_conn_params_evt                     0x00020bdc   Section        0  main.o(i.on_conn_params_evt)
    on_conn_params_evt                       0x00020bdd   Thumb Code    42  main.o(i.on_conn_params_evt)
    i.on_conn_params_update                  0x00020c1c   Section        0  ble_conn_params.o(i.on_conn_params_update)
    on_conn_params_update                    0x00020c1d   Thumb Code    20  ble_conn_params.o(i.on_conn_params_update)
    i.on_connect                             0x00020c34   Section        0  ble_conn_params.o(i.on_connect)
    on_connect                               0x00020c35   Thumb Code    38  ble_conn_params.o(i.on_connect)
    i.on_disconnect                          0x00020c6c   Section        0  ble_conn_params.o(i.on_disconnect)
    on_disconnect                            0x00020c6d   Thumb Code    46  ble_conn_params.o(i.on_disconnect)
    i.on_write                               0x00020cac   Section        0  ble_conn_params.o(i.on_write)
    on_write                                 0x00020cad   Thumb Code    78  ble_conn_params.o(i.on_write)
    i.peer_address_exists                    0x00020d04   Section        0  ble_advertising.o(i.peer_address_exists)
    peer_address_exists                      0x00020d05   Thumb Code    24  ble_advertising.o(i.peer_address_exists)
    i.peer_instance_init                     0x00020d1c   Section        0  device_manager_peripheral.o(i.peer_instance_init)
    peer_instance_init                       0x00020d1d   Thumb Code    92  device_manager_peripheral.o(i.peer_instance_init)
    i.pin_in_use_by_gpiote                   0x00020d80   Section        0  nrf_drv_gpiote.o(i.pin_in_use_by_gpiote)
    pin_in_use_by_gpiote                     0x00020d81   Thumb Code    22  nrf_drv_gpiote.o(i.pin_in_use_by_gpiote)
    i.pin_in_use_by_port                     0x00020d9c   Section        0  nrf_drv_gpiote.o(i.pin_in_use_by_port)
    pin_in_use_by_port                       0x00020d9d   Thumb Code    18  nrf_drv_gpiote.o(i.pin_in_use_by_port)
    i.pin_in_use_by_te                       0x00020db4   Section        0  nrf_drv_gpiote.o(i.pin_in_use_by_te)
    pin_in_use_by_te                         0x00020db5   Thumb Code    26  nrf_drv_gpiote.o(i.pin_in_use_by_te)
    i.pin_in_use_clear                       0x00020dd4   Section        0  nrf_drv_gpiote.o(i.pin_in_use_clear)
    pin_in_use_clear                         0x00020dd5   Thumb Code     8  nrf_drv_gpiote.o(i.pin_in_use_clear)
    i.power_manage                           0x00020de0   Section        0  main.o(i.power_manage)
    power_manage                             0x00020de1   Thumb Code    32  main.o(i.power_manage)
    i.pstorage_access_status_get             0x00020e10   Section        0  pstorage.o(i.pstorage_access_status_get)
    i.pstorage_block_identifier_get          0x00020e3c   Section        0  pstorage.o(i.pstorage_block_identifier_get)
    i.pstorage_clear                         0x00020ee0   Section        0  pstorage.o(i.pstorage_clear)
    i.pstorage_flash_page_end                0x00021000   Section        0  pstorage.o(i.pstorage_flash_page_end)
    pstorage_flash_page_end                  0x00021001   Thumb Code    30  pstorage.o(i.pstorage_flash_page_end)
    i.pstorage_flash_page_size               0x0002101e   Section        0  pstorage.o(i.pstorage_flash_page_size)
    pstorage_flash_page_size                 0x0002101f   Thumb Code    10  pstorage.o(i.pstorage_flash_page_size)
    i.pstorage_init                          0x00021028   Section        0  pstorage.o(i.pstorage_init)
    i.pstorage_load                          0x000210b8   Section        0  pstorage.o(i.pstorage_load)
    i.pstorage_register                      0x000211ac   Section        0  pstorage.o(i.pstorage_register)
    i.pstorage_store                         0x000212bc   Section        0  pstorage.o(i.pstorage_store)
    i.pstorage_sys_event_handler             0x00021398   Section        0  pstorage.o(i.pstorage_sys_event_handler)
    i.pstorage_update                        0x000213e0   Section        0  pstorage.o(i.pstorage_update)
    i.rtc1_compare0_set                      0x000214bc   Section        0  app_timer.o(i.rtc1_compare0_set)
    rtc1_compare0_set                        0x000214bd   Thumb Code     6  app_timer.o(i.rtc1_compare0_set)
    i.rtc1_counter_get                       0x000214c8   Section        0  app_timer.o(i.rtc1_counter_get)
    rtc1_counter_get                         0x000214c9   Thumb Code     6  app_timer.o(i.rtc1_counter_get)
    i.rtc1_init                              0x000214d4   Section        0  app_timer.o(i.rtc1_init)
    rtc1_init                                0x000214d5   Thumb Code    18  app_timer.o(i.rtc1_init)
    i.rtc1_start                             0x000214ec   Section        0  app_timer.o(i.rtc1_start)
    rtc1_start                               0x000214ed   Thumb Code    48  app_timer.o(i.rtc1_start)
    i.rtc1_stop                              0x00021528   Section        0  app_timer.o(i.rtc1_stop)
    rtc1_stop                                0x00021529   Thumb Code    68  app_timer.o(i.rtc1_stop)
    i.rx_byte                                0x00021580   Section        0  nrf_drv_uart.o(i.rx_byte)
    rx_byte                                  0x00021581   Thumb Code    68  nrf_drv_uart.o(i.rx_byte)
    i.rx_done_event                          0x000215d0   Section        0  nrf_drv_uart.o(i.rx_done_event)
    rx_done_event                            0x000215d1   Thumb Code    30  nrf_drv_uart.o(i.rx_done_event)
    i.sd_check_ram_start                     0x000215f4   Section        0  softdevice_handler.o(i.sd_check_ram_start)
    i.sd_nvic_EnableIRQ                      0x00021610   Section        0  softdevice_handler.o(i.sd_nvic_EnableIRQ)
    sd_nvic_EnableIRQ                        0x00021611   Thumb Code   190  softdevice_handler.o(i.sd_nvic_EnableIRQ)
    i.sec_mgr_oob_flags_encode               0x000216e0   Section        0  ble_advdata.o(i.sec_mgr_oob_flags_encode)
    sec_mgr_oob_flags_encode                 0x000216e1   Thumb Code    54  ble_advdata.o(i.sec_mgr_oob_flags_encode)
    i.service_data_encode                    0x00021716   Section        0  ble_advdata.o(i.service_data_encode)
    service_data_encode                      0x00021717   Thumb Code   150  ble_advdata.o(i.service_data_encode)
    i.sleep_mode_enter                       0x000217ac   Section        0  main.o(i.sleep_mode_enter)
    sleep_mode_enter                         0x000217ad   Thumb Code    88  main.o(i.sleep_mode_enter)
    i.sm_state_change                        0x00021814   Section        0  pstorage.o(i.sm_state_change)
    sm_state_change                          0x00021815   Thumb Code    14  pstorage.o(i.sm_state_change)
    i.softdevice_ble_evt_handler_set         0x00021828   Section        0  softdevice_handler.o(i.softdevice_ble_evt_handler_set)
    i.softdevice_enable                      0x00021840   Section        0  softdevice_handler.o(i.softdevice_enable)
    i.softdevice_enable_get_default_config   0x0002185c   Section        0  softdevice_handler.o(i.softdevice_enable_get_default_config)
    i.softdevice_fault_handler               0x00021888   Section        0  softdevice_handler.o(i.softdevice_fault_handler)
    i.softdevice_handler_init                0x0002189c   Section        0  softdevice_handler.o(i.softdevice_handler_init)
    i.softdevice_sys_evt_handler_set         0x00021900   Section        0  softdevice_handler.o(i.softdevice_sys_evt_handler_set)
    i.srdata_check                           0x00021918   Section        0  ble_advdata.o(i.srdata_check)
    srdata_check                             0x00021919   Thumb Code    14  ble_advdata.o(i.srdata_check)
    i.startup_event_extract                  0x00021926   Section        0  bsp_btn_ble.o(i.startup_event_extract)
    startup_event_extract                    0x00021927   Thumb Code    76  bsp_btn_ble.o(i.startup_event_extract)
    i.state_data_erase_entry_run             0x00021974   Section        0  pstorage.o(i.state_data_erase_entry_run)
    state_data_erase_entry_run               0x00021975   Thumb Code    12  pstorage.o(i.state_data_erase_entry_run)
    i.state_data_erase_swap_entry_run        0x00021984   Section        0  pstorage.o(i.state_data_erase_swap_entry_run)
    state_data_erase_swap_entry_run          0x00021985   Thumb Code   124  pstorage.o(i.state_data_erase_swap_entry_run)
    i.state_entry_action_run                 0x00021a10   Section        0  pstorage.o(i.state_entry_action_run)
    state_entry_action_run                   0x00021a11   Thumb Code    52  pstorage.o(i.state_entry_action_run)
    i.state_erase_data_page_entry_run        0x00021a48   Section        0  pstorage.o(i.state_erase_data_page_entry_run)
    state_erase_data_page_entry_run          0x00021a49   Thumb Code    12  pstorage.o(i.state_erase_data_page_entry_run)
    i.state_idle_entry_run                   0x00021a58   Section        0  pstorage.o(i.state_idle_entry_run)
    state_idle_entry_run                     0x00021a59   Thumb Code    18  pstorage.o(i.state_idle_entry_run)
    i.state_restore_head_entry_run           0x00021a74   Section        0  pstorage.o(i.state_restore_head_entry_run)
    state_restore_head_entry_run             0x00021a75   Thumb Code    44  pstorage.o(i.state_restore_head_entry_run)
    i.state_restore_tail_entry_run           0x00021aa8   Section        0  pstorage.o(i.state_restore_tail_entry_run)
    state_restore_tail_entry_run             0x00021aa9   Thumb Code    80  pstorage.o(i.state_restore_tail_entry_run)
    i.state_store_entry_run                  0x00021b00   Section        0  pstorage.o(i.state_store_entry_run)
    state_store_entry_run                    0x00021b01   Thumb Code     8  pstorage.o(i.state_store_entry_run)
    i.state_swap_erase_entry_run             0x00021b08   Section        0  pstorage.o(i.state_swap_erase_entry_run)
    state_swap_erase_entry_run               0x00021b09   Thumb Code    30  pstorage.o(i.state_swap_erase_entry_run)
    i.state_write_data_swap_entry_run        0x00021b28   Section        0  pstorage.o(i.state_write_data_swap_entry_run)
    state_write_data_swap_entry_run          0x00021b29   Thumb Code    50  pstorage.o(i.state_write_data_swap_entry_run)
    i.storage_operation_dummy_handler        0x00021b60   Section        0  device_manager_peripheral.o(i.storage_operation_dummy_handler)
    storage_operation_dummy_handler          0x00021b61   Thumb Code     8  device_manager_peripheral.o(i.storage_operation_dummy_handler)
    i.store_cmd_flash_write_execute          0x00021b68   Section        0  pstorage.o(i.store_cmd_flash_write_execute)
    store_cmd_flash_write_execute            0x00021b69   Thumb Code    94  pstorage.o(i.store_cmd_flash_write_execute)
    i.store_operation_execute                0x00021bd0   Section        0  pstorage.o(i.store_operation_execute)
    store_operation_execute                  0x00021bd1   Thumb Code    10  pstorage.o(i.store_operation_execute)
    i.store_sub_state_sm_run                 0x00021bdc   Section        0  pstorage.o(i.store_sub_state_sm_run)
    store_sub_state_sm_run                   0x00021bdd   Thumb Code    60  pstorage.o(i.store_sub_state_sm_run)
    i.swap_erase_state_run                   0x00021c24   Section        0  pstorage.o(i.swap_erase_state_run)
    swap_erase_state_run                     0x00021c25   Thumb Code    26  pstorage.o(i.swap_erase_state_run)
    i.swap_sub_sm_exit_action_run            0x00021c44   Section        0  pstorage.o(i.swap_sub_sm_exit_action_run)
    swap_sub_sm_exit_action_run              0x00021c45   Thumb Code     8  pstorage.o(i.swap_sub_sm_exit_action_run)
    i.swap_sub_state_entry_action_run        0x00021c4c   Section        0  pstorage.o(i.swap_sub_state_entry_action_run)
    swap_sub_state_entry_action_run          0x00021c4d   Thumb Code    16  pstorage.o(i.swap_sub_state_entry_action_run)
    i.swap_sub_state_err_busy_process        0x00021c64   Section        0  pstorage.o(i.swap_sub_state_err_busy_process)
    swap_sub_state_err_busy_process          0x00021c65   Thumb Code    24  pstorage.o(i.swap_sub_state_err_busy_process)
    i.swap_sub_state_sm_run                  0x00021c84   Section        0  pstorage.o(i.swap_sub_state_sm_run)
    swap_sub_state_sm_run                    0x00021c85   Thumb Code    16  pstorage.o(i.swap_sub_state_sm_run)
    i.swap_sub_state_state_change            0x00021c9c   Section        0  pstorage.o(i.swap_sub_state_state_change)
    swap_sub_state_state_change              0x00021c9d   Thumb Code    14  pstorage.o(i.swap_sub_state_state_change)
    i.sys_evt_dispatch                       0x00021cb0   Section        0  main.o(i.sys_evt_dispatch)
    sys_evt_dispatch                         0x00021cb1   Thumb Code    18  main.o(i.sys_evt_dispatch)
    i.tail_restore_state_run                 0x00021cc4   Section        0  pstorage.o(i.tail_restore_state_run)
    tail_restore_state_run                   0x00021cc5   Thumb Code    24  pstorage.o(i.tail_restore_state_run)
    i.tail_word_size_calculate               0x00021ce0   Section        0  pstorage.o(i.tail_word_size_calculate)
    tail_word_size_calculate                 0x00021ce1   Thumb Code    70  pstorage.o(i.tail_word_size_calculate)
    i.ticks_diff_get                         0x00021d2c   Section        0  app_timer.o(i.ticks_diff_get)
    ticks_diff_get                           0x00021d2d   Thumb Code    10  app_timer.o(i.ticks_diff_get)
    i.timeout_handler_exec                   0x00021d38   Section        0  app_timer.o(i.timeout_handler_exec)
    timeout_handler_exec                     0x00021d39   Thumb Code    56  app_timer.o(i.timeout_handler_exec)
    i.timer_list_handler                     0x00021db0   Section        0  app_timer.o(i.timer_list_handler)
    timer_list_handler                       0x00021db1   Thumb Code    72  app_timer.o(i.timer_list_handler)
    i.timer_list_handler_sched               0x00021e04   Section        0  app_timer.o(i.timer_list_handler_sched)
    timer_list_handler_sched                 0x00021e05   Thumb Code    10  app_timer.o(i.timer_list_handler_sched)
    i.timer_list_insert                      0x00021e10   Section        0  app_timer.o(i.timer_list_insert)
    timer_list_insert                        0x00021e11   Thumb Code    98  app_timer.o(i.timer_list_insert)
    i.timer_list_remove                      0x00021e78   Section        0  app_timer.o(i.timer_list_remove)
    timer_list_remove                        0x00021e79   Thumb Code    90  app_timer.o(i.timer_list_remove)
    i.timer_start_op_schedule                0x00021ee4   Section        0  app_timer.o(i.timer_start_op_schedule)
    timer_start_op_schedule                  0x00021ee5   Thumb Code    86  app_timer.o(i.timer_start_op_schedule)
    i.timer_stop_op_schedule                 0x00021f40   Section        0  app_timer.o(i.timer_stop_op_schedule)
    timer_stop_op_schedule                   0x00021f41   Thumb Code    58  app_timer.o(i.timer_stop_op_schedule)
    i.timer_timeouts_check                   0x00021f80   Section        0  app_timer.o(i.timer_timeouts_check)
    timer_timeouts_check                     0x00021f81   Thumb Code   130  app_timer.o(i.timer_timeouts_check)
    i.timer_timeouts_check_sched             0x00022018   Section        0  app_timer.o(i.timer_timeouts_check_sched)
    timer_timeouts_check_sched               0x00022019   Thumb Code    10  app_timer.o(i.timer_timeouts_check_sched)
    i.timers_init                            0x00022024   Section        0  main.o(i.timers_init)
    timers_init                              0x00022025   Thumb Code    44  main.o(i.timers_init)
    i.tk_value_encode                        0x00022064   Section        0  ble_advdata.o(i.tk_value_encode)
    tk_value_encode                          0x00022065   Thumb Code    70  ble_advdata.o(i.tk_value_encode)
    i.tx_byte                                0x000220ac   Section        0  nrf_drv_uart.o(i.tx_byte)
    tx_byte                                  0x000220ad   Thumb Code    42  nrf_drv_uart.o(i.tx_byte)
    i.tx_done_event                          0x000220e4   Section        0  nrf_drv_uart.o(i.tx_done_event)
    tx_done_event                            0x000220e5   Thumb Code    38  nrf_drv_uart.o(i.tx_done_event)
    i.tx_power_level_encode                  0x00022110   Section        0  ble_advdata.o(i.tx_power_level_encode)
    tx_power_level_encode                    0x00022111   Thumb Code    54  ble_advdata.o(i.tx_power_level_encode)
    i.uart_irq_handler                       0x00022148   Section        0  nrf_drv_uart.o(i.uart_irq_handler)
    uart_irq_handler                         0x00022149   Thumb Code   342  nrf_drv_uart.o(i.uart_irq_handler)
    i.uarte_irq_handler                      0x000222a8   Section        0  nrf_drv_uart.o(i.uarte_irq_handler)
    uarte_irq_handler                        0x000222a9   Thumb Code   286  nrf_drv_uart.o(i.uarte_irq_handler)
    i.uint16_encode                          0x000223d4   Section        0  ble_advdata.o(i.uint16_encode)
    uint16_encode                            0x000223d5   Thumb Code    12  ble_advdata.o(i.uint16_encode)
    i.update_operation_execute               0x000223e0   Section        0  pstorage.o(i.update_operation_execute)
    update_operation_execute                 0x000223e1   Thumb Code     8  pstorage.o(i.update_operation_execute)
    i.update_status_bit_reset                0x000223e8   Section        0  device_manager_peripheral.o(i.update_status_bit_reset)
    update_status_bit_reset                  0x000223e9   Thumb Code    16  device_manager_peripheral.o(i.update_status_bit_reset)
    i.update_timeout_handler                 0x000223fc   Section        0  ble_conn_params.o(i.update_timeout_handler)
    update_timeout_handler                   0x000223fd   Thumb Code   126  ble_conn_params.o(i.update_timeout_handler)
    i.user_id_get                            0x0002248c   Section        0  app_timer.o(i.user_id_get)
    user_id_get                              0x0002248d   Thumb Code    78  app_timer.o(i.user_id_get)
    i.user_op_alloc                          0x000224e4   Section        0  app_timer.o(i.user_op_alloc)
    user_op_alloc                            0x000224e5   Thumb Code    48  app_timer.o(i.user_op_alloc)
    i.user_op_enque                          0x00022514   Section        0  app_timer.o(i.user_op_enque)
    user_op_enque                            0x00022515   Thumb Code     4  app_timer.o(i.user_op_enque)
    i.uuid_list_encode                       0x00022518   Section        0  ble_advdata.o(i.uuid_list_encode)
    uuid_list_encode                         0x00022519   Thumb Code    78  ble_advdata.o(i.uuid_list_encode)
    i.uuid_list_sized_encode                 0x00022566   Section        0  ble_advdata.o(i.uuid_list_sized_encode)
    uuid_list_sized_encode                   0x00022567   Thumb Code   220  ble_advdata.o(i.uuid_list_sized_encode)
    i.whitelist_has_entries                  0x00022642   Section        0  ble_advertising.o(i.whitelist_has_entries)
    whitelist_has_entries                    0x00022643   Thumb Code    18  ble_advertising.o(i.whitelist_has_entries)
    .constdata                               0x00022654   Section        4  main.o(.constdata)
    .constdata                               0x00022658   Section       60  bsp.o(.constdata)
    m_leds_timer_id                          0x00022658   Data           4  bsp.o(.constdata)
    m_alert_timer_id                         0x0002265c   Data           4  bsp.o(.constdata)
    m_button_timer_id                        0x00022660   Data           4  bsp.o(.constdata)
    m_buttons_list                           0x00022664   Data          16  bsp.o(.constdata)
    app_buttons                              0x00022674   Data          32  bsp.o(.constdata)
    .constdata                               0x00022694   Section        4  ble_conn_params.o(.constdata)
    m_conn_params_timer_id                   0x00022694   Data           4  ble_conn_params.o(.constdata)
    .constdata                               0x00022698   Section       52  device_manager_peripheral.o(.constdata)
    .constdata                               0x000226cc   Section       40  pstorage.o(.constdata)
    swap_sub_state_sm_lut                    0x000226cc   Data          20  pstorage.o(.constdata)
    swap_sub_state_sm_lut                    0x000226e0   Data          20  pstorage.o(.constdata)
    .constdata                               0x000226f4   Section        8  app_button.o(.constdata)
    m_detection_delay_timer_id               0x000226f4   Data           4  app_button.o(.constdata)
    .conststring                             0x000226fc   Section       76  device_manager_peripheral.o(.conststring)
    .conststring                             0x00022748   Section       87  softdevice_handler.o(.conststring)
    .data                                    0x20002080   Section        4  main.o(.data)
    m_app_handle                             0x20002080   Data           1  main.o(.data)
    m_conn_handle                            0x20002082   Data           2  main.o(.data)
    .data                                    0x20002084   Section       25  bsp.o(.data)
    m_stable_state                           0x20002084   Data           1  bsp.o(.data)
    m_app_ticks_per_100ms                    0x20002088   Data           4  bsp.o(.data)
    m_indication_type                        0x2000208c   Data           4  bsp.o(.data)
    m_alert_mask                             0x20002090   Data           4  bsp.o(.data)
    m_registered_callback                    0x20002094   Data           4  bsp.o(.data)
    current_long_push_pin_no                 0x20002098   Data           1  bsp.o(.data)
    release_event_at_push                    0x20002099   Data           4  bsp.o(.data)
    .data                                    0x200020a0   Section        8  bsp_btn_ble.o(.data)
    m_error_handler                          0x200020a0   Data           4  bsp_btn_ble.o(.data)
    m_num_connections                        0x200020a4   Data           4  bsp_btn_ble.o(.data)
    .data                                    0x200020a8   Section       32  ble_advertising.o(.data)
    m_advertising_start_pending              0x200020a8   Data           1  ble_advertising.o(.data)
    m_peer_address                           0x200020a9   Data           7  ble_advertising.o(.data)
    m_adv_evt                                0x200020b0   Data           1  ble_advertising.o(.data)
    m_evt_handler                            0x200020b4   Data           4  ble_advertising.o(.data)
    m_error_handler                          0x200020b8   Data           4  ble_advertising.o(.data)
    m_adv_mode_current                       0x200020bc   Data           1  ble_advertising.o(.data)
    m_whitelist_temporarily_disabled         0x200020bd   Data           1  ble_advertising.o(.data)
    m_whitelist_reply_expected               0x200020be   Data           1  ble_advertising.o(.data)
    m_peer_addr_reply_expected               0x200020bf   Data           1  ble_advertising.o(.data)
    m_slave_conn_int                         0x200020c0   Data           4  ble_advertising.o(.data)
    m_tx_power_level                         0x200020c4   Data           1  ble_advertising.o(.data)
    current_slave_link_conn_handle           0x200020c6   Data           2  ble_advertising.o(.data)
    .data                                    0x200020c8   Section       21  ble_conn_params.o(.data)
    m_preferred_conn_params                  0x200020c8   Data           8  ble_conn_params.o(.data)
    m_update_count                           0x200020d0   Data           1  ble_conn_params.o(.data)
    m_conn_handle                            0x200020d2   Data           2  ble_conn_params.o(.data)
    m_current_conn_params                    0x200020d4   Data           8  ble_conn_params.o(.data)
    m_change_param                           0x200020dc   Data           1  ble_conn_params.o(.data)
    .data                                    0x200020e0   Section       20  device_manager_peripheral.o(.data)
    m_storage_handle                         0x200020e0   Data           8  device_manager_peripheral.o(.data)
    m_peer_addr_update                       0x200020e8   Data           4  device_manager_peripheral.o(.data)
    m_module_initialized                     0x200020ec   Data           1  device_manager_peripheral.o(.data)
    m_irk_index_table                        0x200020ed   Data           7  device_manager_peripheral.o(.data)
    .data                                    0x200020f4   Section       40  pstorage.o(.data)
    m_next_app_instance                      0x200020f4   Data           2  pstorage.o(.data)
    m_next_page_addr                         0x200020f8   Data           4  pstorage.o(.data)
    m_state                                  0x200020fc   Data           1  pstorage.o(.data)
    m_swap_sub_state                         0x200020fd   Data           1  pstorage.o(.data)
    m_head_word_size                         0x20002100   Data           4  pstorage.o(.data)
    m_tail_word_size                         0x20002104   Data           4  pstorage.o(.data)
    m_current_page_id                        0x20002108   Data           4  pstorage.o(.data)
    m_num_of_command_retries                 0x2000210c   Data           4  pstorage.o(.data)
    m_num_of_bytes_written                   0x20002110   Data           4  pstorage.o(.data)
    m_app_data_size                          0x20002114   Data           4  pstorage.o(.data)
    m_flags                                  0x20002118   Data           4  pstorage.o(.data)
    .data                                    0x2000211c   Section       20  app_button.o(.data)
    mp_buttons                               0x2000211c   Data           4  app_button.o(.data)
    m_button_count                           0x20002120   Data           1  app_button.o(.data)
    m_detection_delay                        0x20002124   Data           4  app_button.o(.data)
    m_pin_state                              0x20002128   Data           4  app_button.o(.data)
    m_pin_transition                         0x2000212c   Data           4  app_button.o(.data)
    .data                                    0x20002130   Section       34  app_timer.o(.data)
    m_user_array_size                        0x20002130   Data           1  app_timer.o(.data)
    mp_users                                 0x20002134   Data           4  app_timer.o(.data)
    mp_timer_id_head                         0x20002138   Data           4  app_timer.o(.data)
    m_ticks_latest                           0x2000213c   Data           4  app_timer.o(.data)
    m_ticks_elapsed                          0x20002140   Data           8  app_timer.o(.data)
    m_ticks_elapsed_q_read_ind               0x20002148   Data           1  app_timer.o(.data)
    m_ticks_elapsed_q_write_ind              0x20002149   Data           1  app_timer.o(.data)
    m_evt_schedule_func                      0x2000214c   Data           4  app_timer.o(.data)
    m_rtc1_running                           0x20002150   Data           1  app_timer.o(.data)
    m_rtc1_reset                             0x20002151   Data           1  app_timer.o(.data)
    .data                                    0x20002154   Section       24  softdevice_handler.o(.data)
    m_evt_schedule_func                      0x20002154   Data           4  softdevice_handler.o(.data)
    m_softdevice_enabled                     0x20002158   Data           1  softdevice_handler.o(.data)
    mp_ble_evt_buffer                        0x2000215c   Data           4  softdevice_handler.o(.data)
    m_ble_evt_buffer_size                    0x20002160   Data           2  softdevice_handler.o(.data)
    m_ble_evt_handler                        0x20002164   Data           4  softdevice_handler.o(.data)
    m_sys_evt_handler                        0x20002168   Data           4  softdevice_handler.o(.data)
    .data                                    0x2000216c   Section        4  system_nrf52.o(.data)
    __tagsym$$used                           0x2000216c   Number         0  system_nrf52.o(.data)
    .bss                                     0x20002170   Section      528  main.o(.bss)
    APP_TIMER_BUF                            0x20002170   Data         456  main.o(.bss)
    BLE_EVT_BUFFER                           0x20002338   Data          72  main.o(.bss)
    .bss                                     0x20002380   Section      108  bsp.o(.bss)
    m_leds_timer_id_data                     0x20002380   Data          32  bsp.o(.bss)
    m_alert_timer_id_data                    0x200023a0   Data          32  bsp.o(.bss)
    m_events_list                            0x200023c0   Data          12  bsp.o(.bss)
    m_button_timer_id_data                   0x200023cc   Data          32  bsp.o(.bss)
    .bss                                     0x200023ec   Section      259  ble_advertising.o(.bss)
    m_advdata                                0x200023ec   Data          56  ble_advertising.o(.bss)
    m_adv_modes_config                       0x20002424   Data          36  ble_advertising.o(.bss)
    m_whitelist                              0x20002448   Data          16  ble_advertising.o(.bss)
    mp_whitelist_addr                        0x20002458   Data          32  ble_advertising.o(.bss)
    mp_whitelist_irk                         0x20002478   Data          32  ble_advertising.o(.bss)
    m_manuf_specific_data                    0x20002498   Data          12  ble_advertising.o(.bss)
    m_manuf_data_array                       0x200024a4   Data          31  ble_advertising.o(.bss)
    m_service_data                           0x200024c4   Data          12  ble_advertising.o(.bss)
    m_service_data_array                     0x200024d0   Data          31  ble_advertising.o(.bss)
    .bss                                     0x200024f0   Section       60  ble_conn_params.o(.bss)
    m_conn_params_config                     0x200024f0   Data          28  ble_conn_params.o(.bss)
    m_conn_params_timer_id_data              0x2000250c   Data          32  ble_conn_params.o(.bss)
    .bss                                     0x2000252c   Section      335  device_manager_peripheral.o(.bss)
    m_app_context_table                      0x2000252c   Data          28  device_manager_peripheral.o(.bss)
    m_peer_table                             0x20002548   Data         196  device_manager_peripheral.o(.bss)
    m_bond_table                             0x2000260c   Data          28  device_manager_peripheral.o(.bss)
    m_gatts_table                            0x20002628   Data          36  device_manager_peripheral.o(.bss)
    m_connection_table                       0x2000264c   Data          12  device_manager_peripheral.o(.bss)
    m_application_table                      0x20002658   Data          12  device_manager_peripheral.o(.bss)
    m_local_id_info                          0x20002664   Data          23  device_manager_peripheral.o(.bss)
    .bss                                     0x2000267c   Section       88  nrf_drv_gpiote.o(.bss)
    m_cb                                     0x2000267c   Data          88  nrf_drv_gpiote.o(.bss)
    .bss                                     0x200026d4   Section       32  nrf_drv_uart.o(.bss)
    m_cb                                     0x200026d4   Data          32  nrf_drv_uart.o(.bss)
    .bss                                     0x200026f4   Section      228  pstorage.o(.bss)
    m_cmd_queue                              0x200026f4   Data         204  pstorage.o(.bss)
    m_app_table                              0x200027c0   Data          24  pstorage.o(.bss)
    .bss                                     0x200027d8   Section       32  app_button.o(.bss)
    m_detection_delay_timer_id_data          0x200027d8   Data          32  app_button.o(.bss)
    .bss                                     0x200027f8   Section       32  app_error.o(.bss)
    m_error_data                             0x200027f8   Data          32  app_error.o(.bss)
    .bss                                     0x20002818   Section       88  fstorage.o(.bss)
    m_queue                                  0x20002818   Data          88  fstorage.o(.bss)
    .bss                                     0x20002870   Section       12  softdevice_handler.o(.bss)
    STACK                                    0x20002880   Section     8192  arm_startup_nrf52.o(STACK)

    Global Symbols

    Symbol Name                              Value     Ov Type        Size  Object(Section)

    BuildAttributes$$THM_ISAv4$E$P$D$K$B$S$7EM$VFPi3$EXTD16$VFPS$VFMA$PE$A:L22UL41UL21$X:L11$S22US41US21$IEEE1$IW$USESV6$~STKCKD$USESV7$~SHL$OSPACE$ROPI$EBA8$MICROLIB$REQ8$PRES8$EABIv2 0x00000000   Number         0  anon$$obj.o ABSOLUTE
    __ARM_use_no_argv                        0x00000000   Number         0  main.o ABSOLUTE
    __cpp_initialize__aeabi_                  - Undefined Weak Reference
    __cxa_finalize                            - Undefined Weak Reference
    __decompress                              - Undefined Weak Reference
    _clock_init                               - Undefined Weak Reference
    _microlib_exit                            - Undefined Weak Reference
    fs_data$$Base                             - Undefined Reference
    fs_data$$Limit                            - Undefined Reference
    __Vectors_Size                           0x00000400   Number         0  arm_startup_nrf52.o ABSOLUTE
    __Vectors                                0x0001c000   Data           4  arm_startup_nrf52.o(RESET)
    __Vectors_End                            0x0001c400   Data           0  arm_startup_nrf52.o(RESET)
    __main                                   0x0001c401   Thumb Code     0  entry.o(.ARM.Collect$$$$00000000)
    _main_stk                                0x0001c401   Thumb Code     0  entry2.o(.ARM.Collect$$$$00000001)
    _main_scatterload                        0x0001c405   Thumb Code     0  entry5.o(.ARM.Collect$$$$00000004)
    __main_after_scatterload                 0x0001c409   Thumb Code     0  entry5.o(.ARM.Collect$$$$00000004)
    _main_clock                              0x0001c409   Thumb Code     0  entry7b.o(.ARM.Collect$$$$00000008)
    _main_cpp_init                           0x0001c409   Thumb Code     0  entry8b.o(.ARM.Collect$$$$0000000A)
    _main_init                               0x0001c409   Thumb Code     0  entry9a.o(.ARM.Collect$$$$0000000B)
    __rt_final_cpp                           0x0001c411   Thumb Code     0  entry10a.o(.ARM.Collect$$$$0000000D)
    __rt_final_exit                          0x0001c411   Thumb Code     0  entry11a.o(.ARM.Collect$$$$0000000F)
    __asm___11_app_timer_c_cd27f9c3__nrf_delay_us 0x0001c415   Thumb Code   118  app_timer.o(.emb_text)
    Reset_Handler                            0x0001c48d   Thumb Code     8  arm_startup_nrf52.o(.text)
    NMI_Handler                              0x0001c495   Thumb Code     2  arm_startup_nrf52.o(.text)
    HardFault_Handler                        0x0001c497   Thumb Code     2  arm_startup_nrf52.o(.text)
    MemoryManagement_Handler                 0x0001c499   Thumb Code     2  arm_startup_nrf52.o(.text)
    BusFault_Handler                         0x0001c49b   Thumb Code     2  arm_startup_nrf52.o(.text)
    UsageFault_Handler                       0x0001c49d   Thumb Code     2  arm_startup_nrf52.o(.text)
    SVC_Handler                              0x0001c49f   Thumb Code     2  arm_startup_nrf52.o(.text)
    DebugMonitor_Handler                     0x0001c4a1   Thumb Code     2  arm_startup_nrf52.o(.text)
    PendSV_Handler                           0x0001c4a3   Thumb Code     2  arm_startup_nrf52.o(.text)
    SysTick_Handler                          0x0001c4a5   Thumb Code     2  arm_startup_nrf52.o(.text)
    CCM_AAR_IRQHandler                       0x0001c4a7   Thumb Code     0  arm_startup_nrf52.o(.text)
    COMP_LPCOMP_IRQHandler                   0x0001c4a7   Thumb Code     0  arm_startup_nrf52.o(.text)
    ECB_IRQHandler                           0x0001c4a7   Thumb Code     0  arm_startup_nrf52.o(.text)
    FPU_IRQHandler                           0x0001c4a7   Thumb Code     0  arm_startup_nrf52.o(.text)
    I2S_IRQHandler                           0x0001c4a7   Thumb Code     0  arm_startup_nrf52.o(.text)
    MWU_IRQHandler                           0x0001c4a7   Thumb Code     0  arm_startup_nrf52.o(.text)
    NFCT_IRQHandler                          0x0001c4a7   Thumb Code     0  arm_startup_nrf52.o(.text)
    PDM_IRQHandler                           0x0001c4a7   Thumb Code     0  arm_startup_nrf52.o(.text)
    POWER_CLOCK_IRQHandler                   0x0001c4a7   Thumb Code     0  arm_startup_nrf52.o(.text)
    PWM0_IRQHandler                          0x0001c4a7   Thumb Code     0  arm_startup_nrf52.o(.text)
    PWM1_IRQHandler                          0x0001c4a7   Thumb Code     0  arm_startup_nrf52.o(.text)
    PWM2_IRQHandler                          0x0001c4a7   Thumb Code     0  arm_startup_nrf52.o(.text)
    QDEC_IRQHandler                          0x0001c4a7   Thumb Code     0  arm_startup_nrf52.o(.text)
    RADIO_IRQHandler                         0x0001c4a7   Thumb Code     0  arm_startup_nrf52.o(.text)
    RNG_IRQHandler                           0x0001c4a7   Thumb Code     0  arm_startup_nrf52.o(.text)
    RTC0_IRQHandler                          0x0001c4a7   Thumb Code     0  arm_startup_nrf52.o(.text)
    RTC2_IRQHandler                          0x0001c4a7   Thumb Code     0  arm_startup_nrf52.o(.text)
    SAADC_IRQHandler                         0x0001c4a7   Thumb Code     0  arm_startup_nrf52.o(.text)
    SPIM0_SPIS0_TWIM0_TWIS0_SPI0_TWI0_IRQHandler 0x0001c4a7   Thumb Code     0  arm_startup_nrf52.o(.text)
    SPIM1_SPIS1_TWIM1_TWIS1_SPI1_TWI1_IRQHandler 0x0001c4a7   Thumb Code     0  arm_startup_nrf52.o(.text)
    SPIM2_SPIS2_SPI2_IRQHandler              0x0001c4a7   Thumb Code     0  arm_startup_nrf52.o(.text)
    SWI1_EGU1_IRQHandler                     0x0001c4a7   Thumb Code     0  arm_startup_nrf52.o(.text)
    SWI3_EGU3_IRQHandler                     0x0001c4a7   Thumb Code     0  arm_startup_nrf52.o(.text)
    SWI4_EGU4_IRQHandler                     0x0001c4a7   Thumb Code     0  arm_startup_nrf52.o(.text)
    SWI5_EGU5_IRQHandler                     0x0001c4a7   Thumb Code     0  arm_startup_nrf52.o(.text)
    TEMP_IRQHandler                          0x0001c4a7   Thumb Code     0  arm_startup_nrf52.o(.text)
    TIMER0_IRQHandler                        0x0001c4a7   Thumb Code     0  arm_startup_nrf52.o(.text)
    TIMER1_IRQHandler                        0x0001c4a7   Thumb Code     0  arm_startup_nrf52.o(.text)
    TIMER2_IRQHandler                        0x0001c4a7   Thumb Code     0  arm_startup_nrf52.o(.text)
    TIMER3_IRQHandler                        0x0001c4a7   Thumb Code     0  arm_startup_nrf52.o(.text)
    TIMER4_IRQHandler                        0x0001c4a7   Thumb Code     0  arm_startup_nrf52.o(.text)
    WDT_IRQHandler                           0x0001c4a7   Thumb Code     0  arm_startup_nrf52.o(.text)
    __aeabi_memcpy                           0x0001c4b1   Thumb Code    36  memcpya.o(.text)
    __aeabi_memcpy4                          0x0001c4b1   Thumb Code     0  memcpya.o(.text)
    __aeabi_memcpy8                          0x0001c4b1   Thumb Code     0  memcpya.o(.text)
    __aeabi_memset                           0x0001c4d5   Thumb Code    14  memseta.o(.text)
    __aeabi_memset4                          0x0001c4d5   Thumb Code     0  memseta.o(.text)
    __aeabi_memset8                          0x0001c4d5   Thumb Code     0  memseta.o(.text)
    __aeabi_memclr                           0x0001c4e3   Thumb Code     4  memseta.o(.text)
    __aeabi_memclr4                          0x0001c4e3   Thumb Code     0  memseta.o(.text)
    __aeabi_memclr8                          0x0001c4e3   Thumb Code     0  memseta.o(.text)
    _memset$wrapper                          0x0001c4e7   Thumb Code    18  memseta.o(.text)
    memcmp                                   0x0001c4f9   Thumb Code    26  memcmp.o(.text)
    __scatterload                            0x0001c515   Thumb Code    28  init.o(.text)
    __scatterload_rt2                        0x0001c515   Thumb Code     0  init.o(.text)
    GPIOTE_IRQHandler                        0x0001c539   Thumb Code   420  nrf_drv_gpiote.o(i.GPIOTE_IRQHandler)
    RTC1_IRQHandler                          0x0001c761   Thumb Code    44  app_timer.o(i.RTC1_IRQHandler)
    SWI0_EGU0_IRQHandler                     0x0001c795   Thumb Code     8  app_timer.o(i.SWI0_EGU0_IRQHandler)
    SWI2_EGU2_IRQHandler                     0x0001c79d   Thumb Code    48  softdevice_handler.o(i.SWI2_EGU2_IRQHandler)
    SystemCoreClockUpdate                    0x0001c7d5   Thumb Code     8  system_nrf52.o(i.SystemCoreClockUpdate)
    SystemInit                               0x0001c7e5   Thumb Code   512  system_nrf52.o(i.SystemInit)
    UARTE0_UART0_IRQHandler                  0x0001ca19   Thumb Code    20  nrf_drv_uart.o(i.UARTE0_UART0_IRQHandler)
    __scatterload_copy                       0x0001ca31   Thumb Code    14  handlers.o(i.__scatterload_copy)
    __scatterload_null                       0x0001ca3f   Thumb Code     2  handlers.o(i.__scatterload_null)
    __scatterload_zeroinit                   0x0001ca41   Thumb Code    14  handlers.o(i.__scatterload_zeroinit)
    adv_data_encode                          0x0001ca4f   Thumb Code   454  ble_advdata.o(i.adv_data_encode)
    app_button_enable                        0x0001cd15   Thumb Code    34  app_button.o(i.app_button_enable)
    app_button_init                          0x0001cd41   Thumb Code   132  app_button.o(i.app_button_init)
    app_error_fault_handler                  0x0001cde9   Thumb Code    26  app_error_weak.o(i.app_error_fault_handler)
    app_error_handler                        0x0001ce03   Thumb Code    32  app_error.o(i.app_error_handler)
    app_error_save_and_stop                  0x0001ce25   Thumb Code   132  app_error.o(i.app_error_save_and_stop)
    app_timer_create                         0x0001cf25   Thumb Code    56  app_timer.o(i.app_timer_create)
    app_timer_init                           0x0001cf61   Thumb Code   154  app_timer.o(i.app_timer_init)
    app_timer_start                          0x0001d019   Thumb Code    84  app_timer.o(i.app_timer_start)
    app_timer_stop                           0x0001d071   Thumb Code    48  app_timer.o(i.app_timer_stop)
    ble_advdata_set                          0x0001d0f7   Thumb Code   148  ble_advdata.o(i.ble_advdata_set)
    ble_advertising_init                     0x0001d18d   Thumb Code   324  ble_advertising.o(i.ble_advertising_init)
    ble_advertising_on_ble_evt               0x0001d309   Thumb Code   224  ble_advertising.o(i.ble_advertising_on_ble_evt)
    ble_advertising_on_sys_evt               0x0001d401   Thumb Code    64  ble_advertising.o(i.ble_advertising_on_sys_evt)
    ble_advertising_restart_without_whitelist 0x0001d45d   Thumb Code    98  ble_advertising.o(i.ble_advertising_restart_without_whitelist)
    ble_advertising_start                    0x0001d4d5   Thumb Code   604  ble_advertising.o(i.ble_advertising_start)
    ble_conn_params_init                     0x0001d75d   Thumb Code    84  ble_conn_params.o(i.ble_conn_params_init)
    ble_conn_params_on_ble_evt               0x0001d7cd   Thumb Code    62  ble_conn_params.o(i.ble_conn_params_on_ble_evt)
    bond_data_load                           0x0001d9ad   Thumb Code    64  device_manager_peripheral.o(i.bond_data_load)
    bsp_btn_ble_init                         0x0001d9fd   Thumb Code    48  bsp_btn_ble.o(i.bsp_btn_ble_init)
    bsp_btn_ble_on_ble_evt                   0x0001da35   Thumb Code   110  bsp_btn_ble.o(i.bsp_btn_ble_on_ble_evt)
    bsp_btn_ble_sleep_mode_prepare           0x0001daad   Thumb Code    28  bsp_btn_ble.o(i.bsp_btn_ble_sleep_mode_prepare)
    bsp_button_is_pressed                    0x0001dba5   Thumb Code    46  bsp.o(i.bsp_button_is_pressed)
    bsp_event_handler                        0x0001dbdd   Thumb Code   104  main.o(i.bsp_event_handler)
    bsp_event_to_button_action_assign        0x0001dc59   Thumb Code    86  bsp.o(i.bsp_event_to_button_action_assign)
    bsp_indication_set                       0x0001dcb5   Thumb Code    28  bsp.o(i.bsp_indication_set)
    bsp_init                                 0x0001dcd5   Thumb Code   164  bsp.o(i.bsp_init)
    bsp_wakeup_buttons_set                   0x0001e341   Thumb Code    70  bsp.o(i.bsp_wakeup_buttons_set)
    dm_ble_evt_handler                       0x0001ef4d   Thumb Code  1696  device_manager_peripheral.o(i.dm_ble_evt_handler)
    dm_handle_initialize                     0x0001f605   Thumb Code    24  device_manager_peripheral.o(i.dm_handle_initialize)
    dm_init                                  0x0001f61d   Thumb Code   234  device_manager_peripheral.o(i.dm_init)
    dm_register                              0x0001f981   Thumb Code   166  device_manager_peripheral.o(i.dm_register)
    fs_queued_op_count_get                   0x0001fdfd   Thumb Code    18  fstorage.o(i.fs_queued_op_count_get)
    intern_softdevice_events_execute         0x00020245   Thumb Code   150  softdevice_handler.o(i.intern_softdevice_events_execute)
    main                                     0x00020601   Thumb Code    76  main.o(i.main)
    nrf_drv_common_irq_enable                0x000207c9   Thumb Code    84  nrf_drv_common.o(i.nrf_drv_common_irq_enable)
    nrf_drv_gpiote_in_event_enable           0x00020829   Thumb Code   170  nrf_drv_gpiote.o(i.nrf_drv_gpiote_in_event_enable)
    nrf_drv_gpiote_in_init                   0x000208e1   Thumb Code   198  nrf_drv_gpiote.o(i.nrf_drv_gpiote_in_init)
    nrf_drv_gpiote_in_is_set                 0x000209b9   Thumb Code    24  nrf_drv_gpiote.o(i.nrf_drv_gpiote_in_is_set)
    nrf_drv_gpiote_init                      0x000209d5   Thumb Code    78  nrf_drv_gpiote.o(i.nrf_drv_gpiote_init)
    nrf_drv_gpiote_is_init                   0x00020a29   Thumb Code    16  nrf_drv_gpiote.o(i.nrf_drv_gpiote_is_init)
    pstorage_access_status_get               0x00020e11   Thumb Code    36  pstorage.o(i.pstorage_access_status_get)
    pstorage_block_identifier_get            0x00020e3d   Thumb Code   154  pstorage.o(i.pstorage_block_identifier_get)
    pstorage_clear                           0x00020ee1   Thumb Code   280  pstorage.o(i.pstorage_clear)
    pstorage_init                            0x00021029   Thumb Code   110  pstorage.o(i.pstorage_init)
    pstorage_load                            0x000210b9   Thumb Code   236  pstorage.o(i.pstorage_load)
    pstorage_register                        0x000211ad   Thumb Code   256  pstorage.o(i.pstorage_register)
    pstorage_store                           0x000212bd   Thumb Code   212  pstorage.o(i.pstorage_store)
    pstorage_sys_event_handler               0x00021399   Thumb Code    62  pstorage.o(i.pstorage_sys_event_handler)
    pstorage_update                          0x000213e1   Thumb Code   212  pstorage.o(i.pstorage_update)
    sd_check_ram_start                       0x000215f5   Thumb Code    22  softdevice_handler.o(i.sd_check_ram_start)
    softdevice_ble_evt_handler_set           0x00021829   Thumb Code    20  softdevice_handler.o(i.softdevice_ble_evt_handler_set)
    softdevice_enable                        0x00021841   Thumb Code    24  softdevice_handler.o(i.softdevice_enable)
    softdevice_enable_get_default_config     0x0002185d   Thumb Code    44  softdevice_handler.o(i.softdevice_enable_get_default_config)
    softdevice_fault_handler                 0x00021889   Thumb Code    20  softdevice_handler.o(i.softdevice_fault_handler)
    softdevice_handler_init                  0x0002189d   Thumb Code    80  softdevice_handler.o(i.softdevice_handler_init)
    softdevice_sys_evt_handler_set           0x00021901   Thumb Code    20  softdevice_handler.o(i.softdevice_sys_evt_handler_set)
    m_service_context_store                  0x00022698   Data          16  device_manager_peripheral.o(.constdata)
    m_service_context_load                   0x000226a8   Data          16  device_manager_peripheral.o(.constdata)
    m_service_context_apply                  0x000226b8   Data          16  device_manager_peripheral.o(.constdata)
    m_context_init_len                       0x000226c8   Data           4  device_manager_peripheral.o(.constdata)
    Region$$Table$$Base                      0x000227a0   Number         0  anon$$obj.o(Region$$Table)
    Region$$Table$$Limit                     0x000227c0   Number         0  anon$$obj.o(Region$$Table)
    Image$$RW_IRAM1$$Base                    0x20002080   Number         0  anon$$obj.o ABSOLUTE
    SystemCoreClock                          0x2000216c   Data           4  system_nrf52.o(.data)
    nrf_nvic_state                           0x20002870   Data          12  softdevice_handler.o(.bss)
    __initial_sp                             0x20004880   Data           0  arm_startup_nrf52.o(STACK)



==============================================================================

Memory Map of the image

  Image Entry point : 0x0001c401

  Load Region LR_IROM1 (Base: 0x0001c000, Size: 0x000068b0, Max: 0x00064000, ABSOLUTE)

    Execution Region ER_IROM1 (Base: 0x0001c000, Size: 0x000067c0, Max: 0x00064000, ABSOLUTE)

    Base Addr    Size         Type   Attr      Idx    E Section Name        Object

    0x0001c000   0x00000400   Data   RO         2955    RESET               arm_startup_nrf52.o
    0x0001c400   0x00000000   Code   RO         3035  * .ARM.Collect$$$$00000000  mc_w.l(entry.o)
    0x0001c400   0x00000004   Code   RO         3076    .ARM.Collect$$$$00000001  mc_w.l(entry2.o)
    0x0001c404   0x00000004   Code   RO         3079    .ARM.Collect$$$$00000004  mc_w.l(entry5.o)
    0x0001c408   0x00000000   Code   RO         3081    .ARM.Collect$$$$00000008  mc_w.l(entry7b.o)
    0x0001c408   0x00000000   Code   RO         3083    .ARM.Collect$$$$0000000A  mc_w.l(entry8b.o)
    0x0001c408   0x00000008   Code   RO         3084    .ARM.Collect$$$$0000000B  mc_w.l(entry9a.o)
    0x0001c410   0x00000000   Code   RO         3086    .ARM.Collect$$$$0000000D  mc_w.l(entry10a.o)
    0x0001c410   0x00000000   Code   RO         3088    .ARM.Collect$$$$0000000F  mc_w.l(entry11a.o)
    0x0001c410   0x00000004   Code   RO         3077    .ARM.Collect$$$$00002712  mc_w.l(entry2.o)
    0x0001c414   0x00000076   Code   RO         2260    .emb_text           app_timer.o
    0x0001c48a   0x00000002   PAD
    0x0001c48c   0x00000024   Code   RO         2956    .text               arm_startup_nrf52.o
    0x0001c4b0   0x00000024   Code   RO         3038    .text               mc_w.l(memcpya.o)
    0x0001c4d4   0x00000024   Code   RO         3040    .text               mc_w.l(memseta.o)
    0x0001c4f8   0x0000001a   Code   RO         3044    .text               mc_w.l(memcmp.o)
    0x0001c512   0x00000002   PAD
    0x0001c514   0x00000024   Code   RO         3105    .text               mc_w.l(init.o)
    0x0001c538   0x000001b8   Code   RO         1275    i.GPIOTE_IRQHandler  nrf_drv_gpiote.o
    0x0001c6f0   0x00000018   Code   RO         2261    i.NVIC_ClearPendingIRQ  app_timer.o
    0x0001c708   0x00000016   Code   RO         2262    i.NVIC_EnableIRQ    app_timer.o
    0x0001c71e   0x00000002   PAD
    0x0001c720   0x00000018   Code   RO         2263    i.NVIC_SetPendingIRQ  app_timer.o
    0x0001c738   0x00000028   Code   RO         2264    i.NVIC_SetPriority  app_timer.o
    0x0001c760   0x00000034   Code   RO         2265    i.RTC1_IRQHandler   app_timer.o
    0x0001c794   0x00000008   Code   RO         2266    i.SWI0_EGU0_IRQHandler  app_timer.o
    0x0001c79c   0x00000038   Code   RO         2854    i.SWI2_EGU2_IRQHandler  softdevice_handler.o
    0x0001c7d4   0x00000010   Code   RO         2963    i.SystemCoreClockUpdate  system_nrf52.o
    0x0001c7e4   0x00000234   Code   RO         2964    i.SystemInit        system_nrf52.o
    0x0001ca18   0x00000018   Code   RO         1514    i.UARTE0_UART0_IRQHandler  nrf_drv_uart.o
    0x0001ca30   0x0000000e   Code   RO         3117    i.__scatterload_copy  mc_w.l(handlers.o)
    0x0001ca3e   0x00000002   Code   RO         3118    i.__scatterload_null  mc_w.l(handlers.o)
    0x0001ca40   0x0000000e   Code   RO         3119    i.__scatterload_zeroinit  mc_w.l(handlers.o)
    0x0001ca4e   0x000001c6   Code   RO          481    i.adv_data_encode   ble_advdata.o
    0x0001cc14   0x00000012   Code   RO          482    i.advdata_check     ble_advdata.o
    0x0001cc26   0x00000054   Code   RO          428    i.advertising_buttons_configure  bsp_btn_ble.o
    0x0001cc7a   0x00000002   PAD
    0x0001cc7c   0x00000074   Code   RO            4    i.advertising_init  main.o
    0x0001ccf0   0x00000024   Code   RO          320    i.alert_timer_handler  bsp.o
    0x0001cd14   0x0000002c   Code   RO         2135    i.app_button_enable  app_button.o
    0x0001cd40   0x000000a8   Code   RO         2136    i.app_button_init   app_button.o
    0x0001cde8   0x0000001a   Code   RO         2236    i.app_error_fault_handler  app_error_weak.o
    0x0001ce02   0x00000020   Code   RO         2196    i.app_error_handler  app_error.o
    0x0001ce22   0x00000002   PAD
    0x0001ce24   0x00000088   Code   RO         2198    i.app_error_save_and_stop  app_error.o
    0x0001ceac   0x00000020   Code   RO          840    i.app_evt_notify    device_manager_peripheral.o
    0x0001cecc   0x00000030   Code   RO         1800    i.app_notify        pstorage.o
    0x0001cefc   0x00000028   Code   RO         1801    i.app_notify_error_state_transit  pstorage.o
    0x0001cf24   0x0000003c   Code   RO         2269    i.app_timer_create  app_timer.o
    0x0001cf60   0x000000b8   Code   RO         2270    i.app_timer_init    app_timer.o
    0x0001d018   0x00000058   Code   RO         2271    i.app_timer_start   app_timer.o
    0x0001d070   0x00000034   Code   RO         2272    i.app_timer_stop    app_timer.o
    0x0001d0a4   0x00000052   Code   RO          483    i.appearance_encode  ble_advdata.o
    0x0001d0f6   0x00000094   Code   RO          484    i.ble_advdata_set   ble_advdata.o
    0x0001d18a   0x00000002   PAD
    0x0001d18c   0x0000017c   Code   RO          606    i.ble_advertising_init  ble_advertising.o
    0x0001d308   0x000000f8   Code   RO          607    i.ble_advertising_on_ble_evt  ble_advertising.o
    0x0001d400   0x0000004c   Code   RO          608    i.ble_advertising_on_sys_evt  ble_advertising.o
    0x0001d44c   0x00000010   Code   RO          610    i.ble_advertising_peer_address_clear  ble_advertising.o
    0x0001d45c   0x00000078   Code   RO          611    i.ble_advertising_restart_without_whitelist  ble_advertising.o
    0x0001d4d4   0x00000288   Code   RO          612    i.ble_advertising_start  ble_advertising.o
    0x0001d75c   0x00000070   Code   RO          696    i.ble_conn_params_init  ble_conn_params.o
    0x0001d7cc   0x0000003e   Code   RO          697    i.ble_conn_params_on_ble_evt  ble_conn_params.o
    0x0001d80a   0x00000074   Code   RO          485    i.ble_device_addr_encode  ble_advdata.o
    0x0001d87e   0x00000024   Code   RO            6    i.ble_evt_dispatch  main.o
    0x0001d8a2   0x00000002   PAD
    0x0001d8a4   0x00000108   Code   RO            7    i.ble_stack_init    main.o
    0x0001d9ac   0x00000050   Code   RO          841    i.bond_data_load    device_manager_peripheral.o
    0x0001d9fc   0x00000038   Code   RO          429    i.bsp_btn_ble_init  bsp_btn_ble.o
    0x0001da34   0x00000078   Code   RO          430    i.bsp_btn_ble_on_ble_evt  bsp_btn_ble.o
    0x0001daac   0x0000001c   Code   RO          431    i.bsp_btn_ble_sleep_mode_prepare  bsp_btn_ble.o
    0x0001dac8   0x000000dc   Code   RO          321    i.bsp_button_event_handler  bsp.o
    0x0001dba4   0x00000038   Code   RO          322    i.bsp_button_is_pressed  bsp.o
    0x0001dbdc   0x0000007c   Code   RO            8    i.bsp_event_handler  main.o
    0x0001dc58   0x0000005c   Code   RO          326    i.bsp_event_to_button_action_assign  bsp.o
    0x0001dcb4   0x00000020   Code   RO          327    i.bsp_indication_set  bsp.o
    0x0001dcd4   0x000000d0   Code   RO          329    i.bsp_init          bsp.o
    0x0001dda4   0x0000059c   Code   RO          330    i.bsp_led_indication  bsp.o
    0x0001e340   0x00000050   Code   RO          331    i.bsp_wakeup_buttons_set  bsp.o
    0x0001e390   0x0000000e   Code   RO          332    i.button_timer_handler  bsp.o
    0x0001e39e   0x00000002   PAD
    0x0001e3a0   0x00000074   Code   RO            9    i.buttons_leds_init  main.o
    0x0001e414   0x00000020   Code   RO         1276    i.channel_free      nrf_drv_gpiote.o
    0x0001e434   0x00000010   Code   RO         1277    i.channel_handler_get  nrf_drv_gpiote.o
    0x0001e444   0x00000080   Code   RO         1278    i.channel_port_alloc  nrf_drv_gpiote.o
    0x0001e4c4   0x0000000c   Code   RO         1279    i.channel_port_get  nrf_drv_gpiote.o
    0x0001e4d0   0x00000104   Code   RO         1802    i.clear_operation_execute  pstorage.o
    0x0001e5d4   0x00000028   Code   RO         1803    i.clear_post_processing_run  pstorage.o
    0x0001e5fc   0x00000048   Code   RO         1804    i.cmd_process       pstorage.o
    0x0001e644   0x00000014   Code   RO         1805    i.cmd_queue_dequeue  pstorage.o
    0x0001e658   0x00000050   Code   RO         1806    i.cmd_queue_element_init  pstorage.o
    0x0001e6a8   0x0000009c   Code   RO         1807    i.cmd_queue_enqueue  pstorage.o
    0x0001e744   0x00000020   Code   RO         1808    i.cmd_queue_init    pstorage.o
    0x0001e764   0x00000028   Code   RO         1809    i.command_end_procedure_run  pstorage.o
    0x0001e78c   0x0000002c   Code   RO         1810    i.command_queue_element_consume  pstorage.o
    0x0001e7b8   0x00000090   Code   RO         2274    i.compare_reg_update  app_timer.o
    0x0001e848   0x0000005a   Code   RO          486    i.conn_int_check    ble_advdata.o
    0x0001e8a2   0x00000068   Code   RO          487    i.conn_int_encode   ble_advdata.o
    0x0001e90a   0x00000002   PAD
    0x0001e90c   0x00000024   Code   RO           10    i.conn_params_error_handler  main.o
    0x0001e930   0x00000070   Code   RO           11    i.conn_params_init  main.o
    0x0001e9a0   0x00000084   Code   RO          699    i.conn_params_negotiation  ble_conn_params.o
    0x0001ea24   0x00000054   Code   RO          432    i.connection_buttons_configure  bsp_btn_ble.o
    0x0001ea78   0x00000048   Code   RO          842    i.connection_instance_find  device_manager_peripheral.o
    0x0001eac0   0x00000040   Code   RO          843    i.connection_instance_init  device_manager_peripheral.o
    0x0001eb00   0x0000007c   Code   RO         1811    i.data_page_erase_state_run  pstorage.o
    0x0001eb7c   0x00000034   Code   RO         1812    i.data_to_swap_write_state_run  pstorage.o
    0x0001ebb0   0x0000008c   Code   RO         2138    i.detection_delay_timeout_handler  app_button.o
    0x0001ec3c   0x000000e0   Code   RO          844    i.device_context_store  device_manager_peripheral.o
    0x0001ed1c   0x00000088   Code   RO          845    i.device_instance_allocate  device_manager_peripheral.o
    0x0001eda4   0x00000058   Code   RO          846    i.device_instance_find  device_manager_peripheral.o
    0x0001edfc   0x0000002c   Code   RO          847    i.device_instance_free  device_manager_peripheral.o
    0x0001ee28   0x00000038   Code   RO           12    i.device_manager_evt_handler  main.o
    0x0001ee60   0x000000ec   Code   RO           13    i.device_manager_init  main.o
    0x0001ef4c   0x000006b8   Code   RO          852    i.dm_ble_evt_handler  device_manager_peripheral.o
    0x0001f604   0x00000018   Code   RO          858    i.dm_handle_initialize  device_manager_peripheral.o
    0x0001f61c   0x00000108   Code   RO          859    i.dm_init           device_manager_peripheral.o
    0x0001f724   0x0000025c   Code   RO          862    i.dm_pstorage_cb_handler  device_manager_peripheral.o
    0x0001f980   0x000000b0   Code   RO          863    i.dm_register       device_manager_peripheral.o
    0x0001fa30   0x00000064   Code   RO         2275    i.elapsed_ticks_acquire  app_timer.o
    0x0001fa94   0x00000040   Code   RO         1813    i.erase_sub_state_sm_run  pstorage.o
    0x0001fad4   0x00000030   Code   RO         2965    i.errata_16         system_nrf52.o
    0x0001fb04   0x00000054   Code   RO         2966    i.errata_31         system_nrf52.o
    0x0001fb58   0x00000030   Code   RO         2967    i.errata_32         system_nrf52.o
    0x0001fb88   0x00000054   Code   RO         2968    i.errata_36         system_nrf52.o
    0x0001fbdc   0x00000030   Code   RO         2969    i.errata_37         system_nrf52.o
    0x0001fc0c   0x00000030   Code   RO         2970    i.errata_57         system_nrf52.o
    0x0001fc3c   0x00000030   Code   RO         2971    i.errata_66         system_nrf52.o
    0x0001fc6c   0x00000058   Code   RO         2276    i.expired_timers_handler  app_timer.o
    0x0001fcc4   0x00000036   Code   RO          488    i.flags_encode      ble_advdata.o
    0x0001fcfa   0x00000036   Code   RO          614    i.flash_access_in_progress  ble_advertising.o
    0x0001fd30   0x0000002c   Code   RO         1814    i.flash_api_err_code_process  pstorage.o
    0x0001fd5c   0x00000044   Code   RO         1815    i.flash_operation_failure_run  pstorage.o
    0x0001fda0   0x00000030   Code   RO         1816    i.flash_operation_success_run  pstorage.o
    0x0001fdd0   0x00000010   Code   RO         1817    i.flash_page_erase  pstorage.o
    0x0001fde0   0x0000001c   Code   RO         1818    i.flash_write       pstorage.o
    0x0001fdfc   0x00000018   Code   RO         2566    i.fs_queued_op_count_get  fstorage.o
    0x0001fe14   0x000000b0   Code   RO           14    i.gap_params_init   main.o
    0x0001fec4   0x00000006   Code   RO          870    i.gattc_context_apply  device_manager_peripheral.o
    0x0001feca   0x00000006   Code   RO          871    i.gattc_context_load  device_manager_peripheral.o
    0x0001fed0   0x00000006   Code   RO          872    i.gattc_context_store  device_manager_peripheral.o
    0x0001fed6   0x00000002   PAD
    0x0001fed8   0x000000f8   Code   RO          873    i.gatts_context_apply  device_manager_peripheral.o
    0x0001ffd0   0x0000004c   Code   RO          874    i.gatts_context_load  device_manager_peripheral.o
    0x0002001c   0x000000f0   Code   RO          875    i.gatts_context_store  device_manager_peripheral.o
    0x0002010c   0x00000018   Code   RO          876    i.gattsc_context_apply  device_manager_peripheral.o
    0x00020124   0x0000001c   Code   RO          877    i.gattsc_context_load  device_manager_peripheral.o
    0x00020140   0x0000001c   Code   RO          878    i.gattsc_context_store  device_manager_peripheral.o
    0x0002015c   0x00000080   Code   RO         2139    i.gpiote_event_handler  app_button.o
    0x000201dc   0x00000068   Code   RO         1819    i.head_restore_state_run  pstorage.o
    0x00020244   0x000000b0   Code   RO         2855    i.intern_softdevice_events_execute  softdevice_handler.o
    0x000202f4   0x00000024   Code   RO          700    i.is_conn_params_ok  ble_conn_params.o
    0x00020318   0x00000058   Code   RO         1820    i.is_page_erase_required  pstorage.o
    0x00020370   0x00000050   Code   RO         1821    i.is_tail_data_page_swap_required  pstorage.o
    0x000203c0   0x00000010   Code   RO         1822    i.is_word_aligned   pstorage.o
    0x000203d0   0x0000006a   Code   RO          489    i.le_role_encode    ble_advdata.o
    0x0002043a   0x00000002   PAD
    0x0002043c   0x00000020   Code   RO          333    i.leds_timer_handler  bsp.o
    0x0002045c   0x00000098   Code   RO         2277    i.list_deletions_handler  app_timer.o
    0x000204f4   0x0000010c   Code   RO         2278    i.list_insertions_handler  app_timer.o
    0x00020600   0x0000005c   Code   RO           15    i.main              main.o
    0x0002065c   0x00000020   Code   RO         1823    i.main_state_err_busy_process  pstorage.o
    0x0002067c   0x00000076   Code   RO          490    i.manuf_specific_data_encode  ble_advdata.o
    0x000206f2   0x000000c2   Code   RO          491    i.name_encode       ble_advdata.o
    0x000207b4   0x00000006   Code   RO          879    i.no_service_context_apply  device_manager_peripheral.o
    0x000207ba   0x00000006   Code   RO          880    i.no_service_context_load  device_manager_peripheral.o
    0x000207c0   0x00000006   Code   RO          881    i.no_service_context_store  device_manager_peripheral.o
    0x000207c6   0x00000002   PAD
    0x000207c8   0x00000060   Code   RO         1237    i.nrf_drv_common_irq_enable  nrf_drv_common.o
    0x00020828   0x000000b8   Code   RO         1282    i.nrf_drv_gpiote_in_event_enable  nrf_drv_gpiote.o
    0x000208e0   0x000000d8   Code   RO         1283    i.nrf_drv_gpiote_in_init  nrf_drv_gpiote.o
    0x000209b8   0x0000001c   Code   RO         1284    i.nrf_drv_gpiote_in_is_set  nrf_drv_gpiote.o
    0x000209d4   0x00000054   Code   RO         1286    i.nrf_drv_gpiote_init  nrf_drv_gpiote.o
    0x00020a28   0x00000014   Code   RO         1287    i.nrf_drv_gpiote_is_init  nrf_drv_gpiote.o
    0x00020a3c   0x00000024   Code   RO         1299    i.nrf_gpio_cfg      nrf_drv_gpiote.o
    0x00020a60   0x00000024   Code   RO         1301    i.nrf_gpio_cfg_sense_set  nrf_drv_gpiote.o
    0x00020a84   0x0000000c   Code   RO         1304    i.nrf_gpiote_event_addr_get  nrf_drv_gpiote.o
    0x00020a90   0x0000001c   Code   RO         1305    i.nrf_gpiote_event_clear  nrf_drv_gpiote.o
    0x00020aac   0x00000016   Code   RO         1306    i.nrf_gpiote_event_is_set  nrf_drv_gpiote.o
    0x00020ac2   0x00000002   PAD
    0x00020ac4   0x0000000c   Code   RO         1307    i.nrf_gpiote_int_enable  nrf_drv_gpiote.o
    0x00020ad0   0x0000000c   Code   RO         1535    i.nrf_uart_errorsrc_get_and_clear  nrf_drv_uart.o
    0x00020adc   0x0000000e   Code   RO         1536    i.nrf_uart_event_check  nrf_drv_uart.o
    0x00020aea   0x00000006   Code   RO         1537    i.nrf_uart_event_clear  nrf_drv_uart.o
    0x00020af0   0x00000006   Code   RO         1539    i.nrf_uart_int_disable  nrf_drv_uart.o
    0x00020af6   0x00000012   Code   RO         1541    i.nrf_uart_int_enable_check  nrf_drv_uart.o
    0x00020b08   0x00000006   Code   RO         1542    i.nrf_uart_task_trigger  nrf_drv_uart.o
    0x00020b0e   0x0000000c   Code   RO         1544    i.nrf_uarte_errorsrc_get_and_clear  nrf_drv_uart.o
    0x00020b1a   0x0000000e   Code   RO         1545    i.nrf_uarte_event_check  nrf_drv_uart.o
    0x00020b28   0x00000006   Code   RO         1546    i.nrf_uarte_event_clear  nrf_drv_uart.o
    0x00020b2e   0x0000000a   Code   RO         1550    i.nrf_uarte_rx_amount_get  nrf_drv_uart.o
    0x00020b38   0x00000048   Code   RO           16    i.on_adv_evt        main.o
    0x00020b80   0x0000005c   Code   RO           17    i.on_ble_evt        main.o
    0x00020bdc   0x00000040   Code   RO           18    i.on_conn_params_evt  main.o
    0x00020c1c   0x00000018   Code   RO          701    i.on_conn_params_update  ble_conn_params.o
    0x00020c34   0x00000038   Code   RO          702    i.on_connect        ble_conn_params.o
    0x00020c6c   0x00000040   Code   RO          703    i.on_disconnect     ble_conn_params.o
    0x00020cac   0x00000058   Code   RO          704    i.on_write          ble_conn_params.o
    0x00020d04   0x00000018   Code   RO          615    i.peer_address_exists  ble_advertising.o
    0x00020d1c   0x00000064   Code   RO          882    i.peer_instance_init  device_manager_peripheral.o
    0x00020d80   0x0000001c   Code   RO         1309    i.pin_in_use_by_gpiote  nrf_drv_gpiote.o
    0x00020d9c   0x00000018   Code   RO         1310    i.pin_in_use_by_port  nrf_drv_gpiote.o
    0x00020db4   0x00000020   Code   RO         1311    i.pin_in_use_by_te  nrf_drv_gpiote.o
    0x00020dd4   0x0000000c   Code   RO         1312    i.pin_in_use_clear  nrf_drv_gpiote.o
    0x00020de0   0x00000030   Code   RO           19    i.power_manage      main.o
    0x00020e10   0x0000002c   Code   RO         1824    i.pstorage_access_status_get  pstorage.o
    0x00020e3c   0x000000a4   Code   RO         1825    i.pstorage_block_identifier_get  pstorage.o
    0x00020ee0   0x00000120   Code   RO         1826    i.pstorage_clear    pstorage.o
    0x00021000   0x0000001e   Code   RO         1827    i.pstorage_flash_page_end  pstorage.o
    0x0002101e   0x0000000a   Code   RO         1828    i.pstorage_flash_page_size  pstorage.o
    0x00021028   0x00000090   Code   RO         1829    i.pstorage_init     pstorage.o
    0x000210b8   0x000000f4   Code   RO         1830    i.pstorage_load     pstorage.o
    0x000211ac   0x00000110   Code   RO         1831    i.pstorage_register  pstorage.o
    0x000212bc   0x000000dc   Code   RO         1832    i.pstorage_store    pstorage.o
    0x00021398   0x00000048   Code   RO         1833    i.pstorage_sys_event_handler  pstorage.o
    0x000213e0   0x000000dc   Code   RO         1834    i.pstorage_update   pstorage.o
    0x000214bc   0x0000000c   Code   RO         2279    i.rtc1_compare0_set  app_timer.o
    0x000214c8   0x0000000c   Code   RO         2280    i.rtc1_counter_get  app_timer.o
    0x000214d4   0x00000018   Code   RO         2281    i.rtc1_init         app_timer.o
    0x000214ec   0x0000003c   Code   RO         2282    i.rtc1_start        app_timer.o
    0x00021528   0x00000058   Code   RO         2283    i.rtc1_stop         app_timer.o
    0x00021580   0x00000050   Code   RO         1554    i.rx_byte           nrf_drv_uart.o
    0x000215d0   0x00000024   Code   RO         1555    i.rx_done_event     nrf_drv_uart.o
    0x000215f4   0x0000001c   Code   RO         2856    i.sd_check_ram_start  softdevice_handler.o
    0x00021610   0x000000d0   Code   RO         2857    i.sd_nvic_EnableIRQ  softdevice_handler.o
    0x000216e0   0x00000036   Code   RO          492    i.sec_mgr_oob_flags_encode  ble_advdata.o
    0x00021716   0x00000096   Code   RO          493    i.service_data_encode  ble_advdata.o
    0x000217ac   0x00000068   Code   RO           20    i.sleep_mode_enter  main.o
    0x00021814   0x00000014   Code   RO         1835    i.sm_state_change   pstorage.o
    0x00021828   0x00000018   Code   RO         2858    i.softdevice_ble_evt_handler_set  softdevice_handler.o
    0x00021840   0x0000001c   Code   RO         2859    i.softdevice_enable  softdevice_handler.o
    0x0002185c   0x0000002c   Code   RO         2860    i.softdevice_enable_get_default_config  softdevice_handler.o
    0x00021888   0x00000014   Code   RO         2861    i.softdevice_fault_handler  softdevice_handler.o
    0x0002189c   0x00000064   Code   RO         2862    i.softdevice_handler_init  softdevice_handler.o
    0x00021900   0x00000018   Code   RO         2865    i.softdevice_sys_evt_handler_set  softdevice_handler.o
    0x00021918   0x0000000e   Code   RO          494    i.srdata_check      ble_advdata.o
    0x00021926   0x0000004c   Code   RO          433    i.startup_event_extract  bsp_btn_ble.o
    0x00021972   0x00000002   PAD
    0x00021974   0x00000010   Code   RO         1836    i.state_data_erase_entry_run  pstorage.o
    0x00021984   0x0000008c   Code   RO         1837    i.state_data_erase_swap_entry_run  pstorage.o
    0x00021a10   0x00000038   Code   RO         1838    i.state_entry_action_run  pstorage.o
    0x00021a48   0x00000010   Code   RO         1839    i.state_erase_data_page_entry_run  pstorage.o
    0x00021a58   0x0000001c   Code   RO         1840    i.state_idle_entry_run  pstorage.o
    0x00021a74   0x00000034   Code   RO         1841    i.state_restore_head_entry_run  pstorage.o
    0x00021aa8   0x00000058   Code   RO         1842    i.state_restore_tail_entry_run  pstorage.o
    0x00021b00   0x00000008   Code   RO         1843    i.state_store_entry_run  pstorage.o
    0x00021b08   0x0000001e   Code   RO         1844    i.state_swap_erase_entry_run  pstorage.o
    0x00021b26   0x00000002   PAD
    0x00021b28   0x00000038   Code   RO         1845    i.state_write_data_swap_entry_run  pstorage.o
    0x00021b60   0x00000008   Code   RO          883    i.storage_operation_dummy_handler  device_manager_peripheral.o
    0x00021b68   0x00000068   Code   RO         1846    i.store_cmd_flash_write_execute  pstorage.o
    0x00021bd0   0x0000000a   Code   RO         1847    i.store_operation_execute  pstorage.o
    0x00021bda   0x00000002   PAD
    0x00021bdc   0x00000048   Code   RO         1848    i.store_sub_state_sm_run  pstorage.o
    0x00021c24   0x00000020   Code   RO         1849    i.swap_erase_state_run  pstorage.o
    0x00021c44   0x00000008   Code   RO         1850    i.swap_sub_sm_exit_action_run  pstorage.o
    0x00021c4c   0x00000018   Code   RO         1851    i.swap_sub_state_entry_action_run  pstorage.o
    0x00021c64   0x00000020   Code   RO         1852    i.swap_sub_state_err_busy_process  pstorage.o
    0x00021c84   0x00000018   Code   RO         1853    i.swap_sub_state_sm_run  pstorage.o
    0x00021c9c   0x00000014   Code   RO         1854    i.swap_sub_state_state_change  pstorage.o
    0x00021cb0   0x00000012   Code   RO           21    i.sys_evt_dispatch  main.o
    0x00021cc2   0x00000002   PAD
    0x00021cc4   0x0000001c   Code   RO         1855    i.tail_restore_state_run  pstorage.o
    0x00021ce0   0x0000004c   Code   RO         1856    i.tail_word_size_calculate  pstorage.o
    0x00021d2c   0x0000000a   Code   RO         2284    i.ticks_diff_get    app_timer.o
    0x00021d36   0x00000002   PAD
    0x00021d38   0x00000078   Code   RO         2285    i.timeout_handler_exec  app_timer.o
    0x00021db0   0x00000054   Code   RO         2286    i.timer_list_handler  app_timer.o
    0x00021e04   0x0000000a   Code   RO         2287    i.timer_list_handler_sched  app_timer.o
    0x00021e0e   0x00000002   PAD
    0x00021e10   0x00000068   Code   RO         2288    i.timer_list_insert  app_timer.o
    0x00021e78   0x0000006c   Code   RO         2289    i.timer_list_remove  app_timer.o
    0x00021ee4   0x0000005c   Code   RO         2290    i.timer_start_op_schedule  app_timer.o
    0x00021f40   0x00000040   Code   RO         2292    i.timer_stop_op_schedule  app_timer.o
    0x00021f80   0x00000098   Code   RO         2293    i.timer_timeouts_check  app_timer.o
    0x00022018   0x0000000a   Code   RO         2294    i.timer_timeouts_check_sched  app_timer.o
    0x00022022   0x00000002   PAD
    0x00022024   0x00000040   Code   RO           22    i.timers_init       main.o
    0x00022064   0x00000046   Code   RO          495    i.tk_value_encode   ble_advdata.o
    0x000220aa   0x00000002   PAD
    0x000220ac   0x00000038   Code   RO         1557    i.tx_byte           nrf_drv_uart.o
    0x000220e4   0x0000002c   Code   RO         1558    i.tx_done_event     nrf_drv_uart.o
    0x00022110   0x00000036   Code   RO          496    i.tx_power_level_encode  ble_advdata.o
    0x00022146   0x00000002   PAD
    0x00022148   0x00000160   Code   RO         1559    i.uart_irq_handler  nrf_drv_uart.o
    0x000222a8   0x0000012c   Code   RO         1560    i.uarte_irq_handler  nrf_drv_uart.o
    0x000223d4   0x0000000c   Code   RO          497    i.uint16_encode     ble_advdata.o
    0x000223e0   0x00000008   Code   RO         1857    i.update_operation_execute  pstorage.o
    0x000223e8   0x00000014   Code   RO          884    i.update_status_bit_reset  device_manager_peripheral.o
    0x000223fc   0x00000090   Code   RO          705    i.update_timeout_handler  ble_conn_params.o
    0x0002248c   0x00000058   Code   RO         2295    i.user_id_get       app_timer.o
    0x000224e4   0x00000030   Code   RO         2296    i.user_op_alloc     app_timer.o
    0x00022514   0x00000004   Code   RO         2297    i.user_op_enque     app_timer.o
    0x00022518   0x0000004e   Code   RO          498    i.uuid_list_encode  ble_advdata.o
    0x00022566   0x000000dc   Code   RO          499    i.uuid_list_sized_encode  ble_advdata.o
    0x00022642   0x00000012   Code   RO          616    i.whitelist_has_entries  ble_advertising.o
    0x00022654   0x00000004   Data   RO           24    .constdata          main.o
    0x00022658   0x0000003c   Data   RO          335    .constdata          bsp.o
    0x00022694   0x00000004   Data   RO          707    .constdata          ble_conn_params.o
    0x00022698   0x00000034   Data   RO          886    .constdata          device_manager_peripheral.o
    0x000226cc   0x00000028   Data   RO         1859    .constdata          pstorage.o
    0x000226f4   0x00000008   Data   RO         2141    .constdata          app_button.o
    0x000226fc   0x0000004c   Data   RO          887    .conststring        device_manager_peripheral.o
    0x00022748   0x00000057   Data   RO         2867    .conststring        softdevice_handler.o
    0x0002279f   0x00000001   PAD
    0x000227a0   0x00000020   Data   RO         3115    Region$$Table       anon$$obj.o


    Execution Region RW_IRAM1 (Base: 0x20002080, Size: 0x00002800, Max: 0x0000df80, ABSOLUTE)

    Base Addr    Size         Type   Attr      Idx    E Section Name        Object

    0x20002080   0x00000004   Data   RW           25    .data               main.o
    0x20002084   0x00000019   Data   RW          336    .data               bsp.o
    0x2000209d   0x00000003   PAD
    0x200020a0   0x00000008   Data   RW          434    .data               bsp_btn_ble.o
    0x200020a8   0x00000020   Data   RW          618    .data               ble_advertising.o
    0x200020c8   0x00000015   Data   RW          708    .data               ble_conn_params.o
    0x200020dd   0x00000003   PAD
    0x200020e0   0x00000014   Data   RW          888    .data               device_manager_peripheral.o
    0x200020f4   0x00000028   Data   RW         1860    .data               pstorage.o
    0x2000211c   0x00000014   Data   RW         2142    .data               app_button.o
    0x20002130   0x00000022   Data   RW         2298    .data               app_timer.o
    0x20002152   0x00000002   PAD
    0x20002154   0x00000018   Data   RW         2868    .data               softdevice_handler.o
    0x2000216c   0x00000004   Data   RW         2972    .data               system_nrf52.o
    0x20002170   0x00000210   Zero   RW           23    .bss                main.o
    0x20002380   0x0000006c   Zero   RW          334    .bss                bsp.o
    0x200023ec   0x00000103   Zero   RW          617    .bss                ble_advertising.o
    0x200024ef   0x00000001   PAD
    0x200024f0   0x0000003c   Zero   RW          706    .bss                ble_conn_params.o
    0x2000252c   0x0000014f   Zero   RW          885    .bss                device_manager_peripheral.o
    0x2000267b   0x00000001   PAD
    0x2000267c   0x00000058   Zero   RW         1313    .bss                nrf_drv_gpiote.o
    0x200026d4   0x00000020   Zero   RW         1561    .bss                nrf_drv_uart.o
    0x200026f4   0x000000e4   Zero   RW         1858    .bss                pstorage.o
    0x200027d8   0x00000020   Zero   RW         2140    .bss                app_button.o
    0x200027f8   0x00000020   Zero   RW         2199    .bss                app_error.o
    0x20002818   0x00000058   Zero   RW         2577    .bss                fstorage.o
    0x20002870   0x0000000c   Zero   RW         2866    .bss                softdevice_handler.o
    0x2000287c   0x00000004   PAD
    0x20002880   0x00002000   Zero   RW         2953    STACK               arm_startup_nrf52.o


==============================================================================

Image component sizes


      Code (inc. data)   RO Data    RW Data    ZI Data      Debug   Object Name

       480         80          8         20         32      10238   app_button.o
       168          4          0          0         32       4234   app_error.o
        26          0          0          0          0        818   app_error_weak.o
      2514        336          0         34          0      63007   app_timer.o
        36          8       1024          0       8192        956   arm_startup_nrf52.o
      2136          0          0          0          0      25664   ble_advdata.o
      1584        162          0         32        259      11541   ble_advertising.o
       718        122          4         21         60      19964   ble_conn_params.o
      2206        182         60         25        108      10689   bsp.o
       448         18          0          8          0       6277   bsp_btn_ble.o
      4336        262        128         20        335      34909   device_manager_peripheral.o
        24          6          0          0         88       3520   fstorage.o
      1826        338          4          4        528     119383   main.o
        96         12          0          0          0      29031   nrf_drv_common.o
      1402        130          0          0         88      27792   nrf_drv_gpiote.o
       996         66          0          0         32      24930   nrf_drv_uart.o
      4252        430         40         40        228      51506   pstorage.o
       708         90         87         24         12      40581   softdevice_handler.o
       988        102          0          4          0      32914   system_nrf52.o

    ----------------------------------------------------------------------
     24986       2348       1388        240      10000     517954   Object Totals
         0          0         32          0          0          0   (incl. Generated)
        42          0          1          8          6          0   (incl. Padding)

    ----------------------------------------------------------------------

      Code (inc. data)   RO Data    RW Data    ZI Data      Debug   Library Member Name

         0          0          0          0          0          0   entry.o
         0          0          0          0          0          0   entry10a.o
         0          0          0          0          0          0   entry11a.o
         8          4          0          0          0          0   entry2.o
         4          0          0          0          0          0   entry5.o
         0          0          0          0          0          0   entry7b.o
         0          0          0          0          0          0   entry8b.o
         8          4          0          0          0          0   entry9a.o
        30          0          0          0          0          0   handlers.o
        36          8          0          0          0         68   init.o
        26          0          0          0          0         80   memcmp.o
        36          0          0          0          0         68   memcpya.o
        36          0          0          0          0        108   memseta.o

    ----------------------------------------------------------------------
       186         16          0          0          0        324   Library Totals
         2          0          0          0          0          0   (incl. Padding)

    ----------------------------------------------------------------------

      Code (inc. data)   RO Data    RW Data    ZI Data      Debug   Library Name

       184         16          0          0          0        324   mc_w.l

    ----------------------------------------------------------------------
       186         16          0          0          0        324   Library Totals

    ----------------------------------------------------------------------

==============================================================================


      Code (inc. data)   RO Data    RW Data    ZI Data      Debug   

     25172       2364       1388        240      10000     493278   Grand Totals
     25172       2364       1388        240      10000     493278   ELF Image Totals
     25172       2364       1388        240          0          0   ROM Totals

==============================================================================

    Total RO  Size (Code + RO Data)                26560 (  25.94kB)
    Total RW  Size (RW Data + ZI Data)             10240 (  10.00kB)
    Total ROM Size (Code + RO Data + RW Data)      26800 (  26.17kB)

==============================================================================

